
;CodeVisionAVR C Compiler V3.12 Advanced
;(C) Copyright 1998-2014 Pavel Haiduc, HP InfoTech s.r.l.
;http://www.hpinfotech.com

;Build configuration    : Debug
;Chip type              : ATmega128
;Program type           : Application
;Clock frequency        : 8.000000 MHz
;Memory model           : Small
;Optimize for           : Size
;(s)printf features     : int, width
;(s)scanf features      : int, width
;External RAM size      : 0
;Data Stack size        : 1024 byte(s)
;Heap size              : 0 byte(s)
;Promote 'char' to 'int': Yes
;'char' is unsigned     : Yes
;8 bit enums            : Yes
;Global 'const' stored in FLASH: Yes
;Enhanced function parameter passing: Yes
;Enhanced core instructions: On
;Automatic register allocation for global variables: On
;Smart register allocation: On

	#define _MODEL_SMALL_

	#pragma AVRPART ADMIN PART_NAME ATmega128
	#pragma AVRPART MEMORY PROG_FLASH 131072
	#pragma AVRPART MEMORY EEPROM 4096
	#pragma AVRPART MEMORY INT_SRAM SIZE 4096
	#pragma AVRPART MEMORY INT_SRAM START_ADDR 0x100

	#define CALL_SUPPORTED 1

	.LISTMAC
	.EQU UDRE=0x5
	.EQU RXC=0x7
	.EQU USR=0xB
	.EQU UDR=0xC
	.EQU SPSR=0xE
	.EQU SPDR=0xF
	.EQU EERE=0x0
	.EQU EEWE=0x1
	.EQU EEMWE=0x2
	.EQU EECR=0x1C
	.EQU EEDR=0x1D
	.EQU EEARL=0x1E
	.EQU EEARH=0x1F
	.EQU WDTCR=0x21
	.EQU MCUCR=0x35
	.EQU RAMPZ=0x3B
	.EQU SPL=0x3D
	.EQU SPH=0x3E
	.EQU SREG=0x3F
	.EQU XMCRA=0x6D
	.EQU XMCRB=0x6C

	.DEF R0X0=R0
	.DEF R0X1=R1
	.DEF R0X2=R2
	.DEF R0X3=R3
	.DEF R0X4=R4
	.DEF R0X5=R5
	.DEF R0X6=R6
	.DEF R0X7=R7
	.DEF R0X8=R8
	.DEF R0X9=R9
	.DEF R0XA=R10
	.DEF R0XB=R11
	.DEF R0XC=R12
	.DEF R0XD=R13
	.DEF R0XE=R14
	.DEF R0XF=R15
	.DEF R0X10=R16
	.DEF R0X11=R17
	.DEF R0X12=R18
	.DEF R0X13=R19
	.DEF R0X14=R20
	.DEF R0X15=R21
	.DEF R0X16=R22
	.DEF R0X17=R23
	.DEF R0X18=R24
	.DEF R0X19=R25
	.DEF R0X1A=R26
	.DEF R0X1B=R27
	.DEF R0X1C=R28
	.DEF R0X1D=R29
	.DEF R0X1E=R30
	.DEF R0X1F=R31

	.EQU __SRAM_START=0x0100
	.EQU __SRAM_END=0x10FF
	.EQU __DSTACK_SIZE=0x0400
	.EQU __HEAP_SIZE=0x0000
	.EQU __CLEAR_SRAM_SIZE=__SRAM_END-__SRAM_START+1

	.MACRO __CPD1N
	CPI  R30,LOW(@0)
	LDI  R26,HIGH(@0)
	CPC  R31,R26
	LDI  R26,BYTE3(@0)
	CPC  R22,R26
	LDI  R26,BYTE4(@0)
	CPC  R23,R26
	.ENDM

	.MACRO __CPD2N
	CPI  R26,LOW(@0)
	LDI  R30,HIGH(@0)
	CPC  R27,R30
	LDI  R30,BYTE3(@0)
	CPC  R24,R30
	LDI  R30,BYTE4(@0)
	CPC  R25,R30
	.ENDM

	.MACRO __CPWRR
	CP   R@0,R@2
	CPC  R@1,R@3
	.ENDM

	.MACRO __CPWRN
	CPI  R@0,LOW(@2)
	LDI  R30,HIGH(@2)
	CPC  R@1,R30
	.ENDM

	.MACRO __ADDB1MN
	SUBI R30,LOW(-@0-(@1))
	.ENDM

	.MACRO __ADDB2MN
	SUBI R26,LOW(-@0-(@1))
	.ENDM

	.MACRO __ADDW1MN
	SUBI R30,LOW(-@0-(@1))
	SBCI R31,HIGH(-@0-(@1))
	.ENDM

	.MACRO __ADDW2MN
	SUBI R26,LOW(-@0-(@1))
	SBCI R27,HIGH(-@0-(@1))
	.ENDM

	.MACRO __ADDW1FN
	SUBI R30,LOW(-2*@0-(@1))
	SBCI R31,HIGH(-2*@0-(@1))
	.ENDM

	.MACRO __ADDD1FN
	SUBI R30,LOW(-2*@0-(@1))
	SBCI R31,HIGH(-2*@0-(@1))
	SBCI R22,BYTE3(-2*@0-(@1))
	.ENDM

	.MACRO __ADDD1N
	SUBI R30,LOW(-@0)
	SBCI R31,HIGH(-@0)
	SBCI R22,BYTE3(-@0)
	SBCI R23,BYTE4(-@0)
	.ENDM

	.MACRO __ADDD2N
	SUBI R26,LOW(-@0)
	SBCI R27,HIGH(-@0)
	SBCI R24,BYTE3(-@0)
	SBCI R25,BYTE4(-@0)
	.ENDM

	.MACRO __SUBD1N
	SUBI R30,LOW(@0)
	SBCI R31,HIGH(@0)
	SBCI R22,BYTE3(@0)
	SBCI R23,BYTE4(@0)
	.ENDM

	.MACRO __SUBD2N
	SUBI R26,LOW(@0)
	SBCI R27,HIGH(@0)
	SBCI R24,BYTE3(@0)
	SBCI R25,BYTE4(@0)
	.ENDM

	.MACRO __ANDBMNN
	LDS  R30,@0+(@1)
	ANDI R30,LOW(@2)
	STS  @0+(@1),R30
	.ENDM

	.MACRO __ANDWMNN
	LDS  R30,@0+(@1)
	ANDI R30,LOW(@2)
	STS  @0+(@1),R30
	LDS  R30,@0+(@1)+1
	ANDI R30,HIGH(@2)
	STS  @0+(@1)+1,R30
	.ENDM

	.MACRO __ANDD1N
	ANDI R30,LOW(@0)
	ANDI R31,HIGH(@0)
	ANDI R22,BYTE3(@0)
	ANDI R23,BYTE4(@0)
	.ENDM

	.MACRO __ANDD2N
	ANDI R26,LOW(@0)
	ANDI R27,HIGH(@0)
	ANDI R24,BYTE3(@0)
	ANDI R25,BYTE4(@0)
	.ENDM

	.MACRO __ORBMNN
	LDS  R30,@0+(@1)
	ORI  R30,LOW(@2)
	STS  @0+(@1),R30
	.ENDM

	.MACRO __ORWMNN
	LDS  R30,@0+(@1)
	ORI  R30,LOW(@2)
	STS  @0+(@1),R30
	LDS  R30,@0+(@1)+1
	ORI  R30,HIGH(@2)
	STS  @0+(@1)+1,R30
	.ENDM

	.MACRO __ORD1N
	ORI  R30,LOW(@0)
	ORI  R31,HIGH(@0)
	ORI  R22,BYTE3(@0)
	ORI  R23,BYTE4(@0)
	.ENDM

	.MACRO __ORD2N
	ORI  R26,LOW(@0)
	ORI  R27,HIGH(@0)
	ORI  R24,BYTE3(@0)
	ORI  R25,BYTE4(@0)
	.ENDM

	.MACRO __DELAY_USB
	LDI  R24,LOW(@0)
__DELAY_USB_LOOP:
	DEC  R24
	BRNE __DELAY_USB_LOOP
	.ENDM

	.MACRO __DELAY_USW
	LDI  R24,LOW(@0)
	LDI  R25,HIGH(@0)
__DELAY_USW_LOOP:
	SBIW R24,1
	BRNE __DELAY_USW_LOOP
	.ENDM

	.MACRO __GETD1S
	LDD  R30,Y+@0
	LDD  R31,Y+@0+1
	LDD  R22,Y+@0+2
	LDD  R23,Y+@0+3
	.ENDM

	.MACRO __GETD2S
	LDD  R26,Y+@0
	LDD  R27,Y+@0+1
	LDD  R24,Y+@0+2
	LDD  R25,Y+@0+3
	.ENDM

	.MACRO __PUTD1S
	STD  Y+@0,R30
	STD  Y+@0+1,R31
	STD  Y+@0+2,R22
	STD  Y+@0+3,R23
	.ENDM

	.MACRO __PUTD2S
	STD  Y+@0,R26
	STD  Y+@0+1,R27
	STD  Y+@0+2,R24
	STD  Y+@0+3,R25
	.ENDM

	.MACRO __PUTDZ2
	STD  Z+@0,R26
	STD  Z+@0+1,R27
	STD  Z+@0+2,R24
	STD  Z+@0+3,R25
	.ENDM

	.MACRO __CLRD1S
	STD  Y+@0,R30
	STD  Y+@0+1,R30
	STD  Y+@0+2,R30
	STD  Y+@0+3,R30
	.ENDM

	.MACRO __POINTB1MN
	LDI  R30,LOW(@0+(@1))
	.ENDM

	.MACRO __POINTW1MN
	LDI  R30,LOW(@0+(@1))
	LDI  R31,HIGH(@0+(@1))
	.ENDM

	.MACRO __POINTD1M
	LDI  R30,LOW(@0)
	LDI  R31,HIGH(@0)
	LDI  R22,BYTE3(@0)
	LDI  R23,BYTE4(@0)
	.ENDM

	.MACRO __POINTW1FN
	LDI  R30,LOW(2*@0+(@1))
	LDI  R31,HIGH(2*@0+(@1))
	.ENDM

	.MACRO __POINTD1FN
	LDI  R30,LOW(2*@0+(@1))
	LDI  R31,HIGH(2*@0+(@1))
	LDI  R22,BYTE3(2*@0+(@1))
	LDI  R23,BYTE4(2*@0+(@1))
	.ENDM

	.MACRO __POINTB2MN
	LDI  R26,LOW(@0+(@1))
	.ENDM

	.MACRO __POINTW2MN
	LDI  R26,LOW(@0+(@1))
	LDI  R27,HIGH(@0+(@1))
	.ENDM

	.MACRO __POINTW2FN
	LDI  R26,LOW(2*@0+(@1))
	LDI  R27,HIGH(2*@0+(@1))
	.ENDM

	.MACRO __POINTD2FN
	LDI  R26,LOW(2*@0+(@1))
	LDI  R27,HIGH(2*@0+(@1))
	LDI  R24,BYTE3(2*@0+(@1))
	LDI  R25,BYTE4(2*@0+(@1))
	.ENDM

	.MACRO __POINTBRM
	LDI  R@0,LOW(@1)
	.ENDM

	.MACRO __POINTWRM
	LDI  R@0,LOW(@2)
	LDI  R@1,HIGH(@2)
	.ENDM

	.MACRO __POINTBRMN
	LDI  R@0,LOW(@1+(@2))
	.ENDM

	.MACRO __POINTWRMN
	LDI  R@0,LOW(@2+(@3))
	LDI  R@1,HIGH(@2+(@3))
	.ENDM

	.MACRO __POINTWRFN
	LDI  R@0,LOW(@2*2+(@3))
	LDI  R@1,HIGH(@2*2+(@3))
	.ENDM

	.MACRO __GETD1N
	LDI  R30,LOW(@0)
	LDI  R31,HIGH(@0)
	LDI  R22,BYTE3(@0)
	LDI  R23,BYTE4(@0)
	.ENDM

	.MACRO __GETD2N
	LDI  R26,LOW(@0)
	LDI  R27,HIGH(@0)
	LDI  R24,BYTE3(@0)
	LDI  R25,BYTE4(@0)
	.ENDM

	.MACRO __GETB1MN
	LDS  R30,@0+(@1)
	.ENDM

	.MACRO __GETB1HMN
	LDS  R31,@0+(@1)
	.ENDM

	.MACRO __GETW1MN
	LDS  R30,@0+(@1)
	LDS  R31,@0+(@1)+1
	.ENDM

	.MACRO __GETD1MN
	LDS  R30,@0+(@1)
	LDS  R31,@0+(@1)+1
	LDS  R22,@0+(@1)+2
	LDS  R23,@0+(@1)+3
	.ENDM

	.MACRO __GETBRMN
	LDS  R@0,@1+(@2)
	.ENDM

	.MACRO __GETWRMN
	LDS  R@0,@2+(@3)
	LDS  R@1,@2+(@3)+1
	.ENDM

	.MACRO __GETWRZ
	LDD  R@0,Z+@2
	LDD  R@1,Z+@2+1
	.ENDM

	.MACRO __GETD2Z
	LDD  R26,Z+@0
	LDD  R27,Z+@0+1
	LDD  R24,Z+@0+2
	LDD  R25,Z+@0+3
	.ENDM

	.MACRO __GETB2MN
	LDS  R26,@0+(@1)
	.ENDM

	.MACRO __GETW2MN
	LDS  R26,@0+(@1)
	LDS  R27,@0+(@1)+1
	.ENDM

	.MACRO __GETD2MN
	LDS  R26,@0+(@1)
	LDS  R27,@0+(@1)+1
	LDS  R24,@0+(@1)+2
	LDS  R25,@0+(@1)+3
	.ENDM

	.MACRO __PUTB1MN
	STS  @0+(@1),R30
	.ENDM

	.MACRO __PUTW1MN
	STS  @0+(@1),R30
	STS  @0+(@1)+1,R31
	.ENDM

	.MACRO __PUTD1MN
	STS  @0+(@1),R30
	STS  @0+(@1)+1,R31
	STS  @0+(@1)+2,R22
	STS  @0+(@1)+3,R23
	.ENDM

	.MACRO __PUTB1EN
	LDI  R26,LOW(@0+(@1))
	LDI  R27,HIGH(@0+(@1))
	CALL __EEPROMWRB
	.ENDM

	.MACRO __PUTW1EN
	LDI  R26,LOW(@0+(@1))
	LDI  R27,HIGH(@0+(@1))
	CALL __EEPROMWRW
	.ENDM

	.MACRO __PUTD1EN
	LDI  R26,LOW(@0+(@1))
	LDI  R27,HIGH(@0+(@1))
	CALL __EEPROMWRD
	.ENDM

	.MACRO __PUTBR0MN
	STS  @0+(@1),R0
	.ENDM

	.MACRO __PUTBMRN
	STS  @0+(@1),R@2
	.ENDM

	.MACRO __PUTWMRN
	STS  @0+(@1),R@2
	STS  @0+(@1)+1,R@3
	.ENDM

	.MACRO __PUTBZR
	STD  Z+@1,R@0
	.ENDM

	.MACRO __PUTWZR
	STD  Z+@2,R@0
	STD  Z+@2+1,R@1
	.ENDM

	.MACRO __GETW1R
	MOV  R30,R@0
	MOV  R31,R@1
	.ENDM

	.MACRO __GETW2R
	MOV  R26,R@0
	MOV  R27,R@1
	.ENDM

	.MACRO __GETWRN
	LDI  R@0,LOW(@2)
	LDI  R@1,HIGH(@2)
	.ENDM

	.MACRO __PUTW1R
	MOV  R@0,R30
	MOV  R@1,R31
	.ENDM

	.MACRO __PUTW2R
	MOV  R@0,R26
	MOV  R@1,R27
	.ENDM

	.MACRO __ADDWRN
	SUBI R@0,LOW(-@2)
	SBCI R@1,HIGH(-@2)
	.ENDM

	.MACRO __ADDWRR
	ADD  R@0,R@2
	ADC  R@1,R@3
	.ENDM

	.MACRO __SUBWRN
	SUBI R@0,LOW(@2)
	SBCI R@1,HIGH(@2)
	.ENDM

	.MACRO __SUBWRR
	SUB  R@0,R@2
	SBC  R@1,R@3
	.ENDM

	.MACRO __ANDWRN
	ANDI R@0,LOW(@2)
	ANDI R@1,HIGH(@2)
	.ENDM

	.MACRO __ANDWRR
	AND  R@0,R@2
	AND  R@1,R@3
	.ENDM

	.MACRO __ORWRN
	ORI  R@0,LOW(@2)
	ORI  R@1,HIGH(@2)
	.ENDM

	.MACRO __ORWRR
	OR   R@0,R@2
	OR   R@1,R@3
	.ENDM

	.MACRO __EORWRR
	EOR  R@0,R@2
	EOR  R@1,R@3
	.ENDM

	.MACRO __GETWRS
	LDD  R@0,Y+@2
	LDD  R@1,Y+@2+1
	.ENDM

	.MACRO __PUTBSR
	STD  Y+@1,R@0
	.ENDM

	.MACRO __PUTWSR
	STD  Y+@2,R@0
	STD  Y+@2+1,R@1
	.ENDM

	.MACRO __MOVEWRR
	MOV  R@0,R@2
	MOV  R@1,R@3
	.ENDM

	.MACRO __INWR
	IN   R@0,@2
	IN   R@1,@2+1
	.ENDM

	.MACRO __OUTWR
	OUT  @2+1,R@1
	OUT  @2,R@0
	.ENDM

	.MACRO __CALL1MN
	LDS  R30,@0+(@1)
	LDS  R31,@0+(@1)+1
	ICALL
	.ENDM

	.MACRO __CALL1FN
	LDI  R30,LOW(2*@0+(@1))
	LDI  R31,HIGH(2*@0+(@1))
	CALL __GETW1PF
	ICALL
	.ENDM

	.MACRO __CALL2EN
	PUSH R26
	PUSH R27
	LDI  R26,LOW(@0+(@1))
	LDI  R27,HIGH(@0+(@1))
	CALL __EEPROMRDW
	POP  R27
	POP  R26
	ICALL
	.ENDM

	.MACRO __CALL2EX
	SUBI R26,LOW(-@0)
	SBCI R27,HIGH(-@0)
	CALL __EEPROMRDD
	ICALL
	.ENDM

	.MACRO __GETW1STACK
	IN   R30,SPL
	IN   R31,SPH
	ADIW R30,@0+1
	LD   R0,Z+
	LD   R31,Z
	MOV  R30,R0
	.ENDM

	.MACRO __GETD1STACK
	IN   R30,SPL
	IN   R31,SPH
	ADIW R30,@0+1
	LD   R0,Z+
	LD   R1,Z+
	LD   R22,Z
	MOVW R30,R0
	.ENDM

	.MACRO __NBST
	BST  R@0,@1
	IN   R30,SREG
	LDI  R31,0x40
	EOR  R30,R31
	OUT  SREG,R30
	.ENDM


	.MACRO __PUTB1SN
	LDD  R26,Y+@0
	LDD  R27,Y+@0+1
	SUBI R26,LOW(-@1)
	SBCI R27,HIGH(-@1)
	ST   X,R30
	.ENDM

	.MACRO __PUTW1SN
	LDD  R26,Y+@0
	LDD  R27,Y+@0+1
	SUBI R26,LOW(-@1)
	SBCI R27,HIGH(-@1)
	ST   X+,R30
	ST   X,R31
	.ENDM

	.MACRO __PUTD1SN
	LDD  R26,Y+@0
	LDD  R27,Y+@0+1
	SUBI R26,LOW(-@1)
	SBCI R27,HIGH(-@1)
	CALL __PUTDP1
	.ENDM

	.MACRO __PUTB1SNS
	LDD  R26,Y+@0
	LDD  R27,Y+@0+1
	ADIW R26,@1
	ST   X,R30
	.ENDM

	.MACRO __PUTW1SNS
	LDD  R26,Y+@0
	LDD  R27,Y+@0+1
	ADIW R26,@1
	ST   X+,R30
	ST   X,R31
	.ENDM

	.MACRO __PUTD1SNS
	LDD  R26,Y+@0
	LDD  R27,Y+@0+1
	ADIW R26,@1
	CALL __PUTDP1
	.ENDM

	.MACRO __PUTB1PMN
	LDS  R26,@0
	LDS  R27,@0+1
	SUBI R26,LOW(-@1)
	SBCI R27,HIGH(-@1)
	ST   X,R30
	.ENDM

	.MACRO __PUTW1PMN
	LDS  R26,@0
	LDS  R27,@0+1
	SUBI R26,LOW(-@1)
	SBCI R27,HIGH(-@1)
	ST   X+,R30
	ST   X,R31
	.ENDM

	.MACRO __PUTD1PMN
	LDS  R26,@0
	LDS  R27,@0+1
	SUBI R26,LOW(-@1)
	SBCI R27,HIGH(-@1)
	CALL __PUTDP1
	.ENDM

	.MACRO __PUTB1PMNS
	LDS  R26,@0
	LDS  R27,@0+1
	ADIW R26,@1
	ST   X,R30
	.ENDM

	.MACRO __PUTW1PMNS
	LDS  R26,@0
	LDS  R27,@0+1
	ADIW R26,@1
	ST   X+,R30
	ST   X,R31
	.ENDM

	.MACRO __PUTD1PMNS
	LDS  R26,@0
	LDS  R27,@0+1
	ADIW R26,@1
	CALL __PUTDP1
	.ENDM

	.MACRO __PUTB1RN
	MOVW R26,R@0
	SUBI R26,LOW(-@1)
	SBCI R27,HIGH(-@1)
	ST   X,R30
	.ENDM

	.MACRO __PUTW1RN
	MOVW R26,R@0
	SUBI R26,LOW(-@1)
	SBCI R27,HIGH(-@1)
	ST   X+,R30
	ST   X,R31
	.ENDM

	.MACRO __PUTD1RN
	MOVW R26,R@0
	SUBI R26,LOW(-@1)
	SBCI R27,HIGH(-@1)
	CALL __PUTDP1
	.ENDM

	.MACRO __PUTB1RNS
	MOVW R26,R@0
	ADIW R26,@1
	ST   X,R30
	.ENDM

	.MACRO __PUTW1RNS
	MOVW R26,R@0
	ADIW R26,@1
	ST   X+,R30
	ST   X,R31
	.ENDM

	.MACRO __PUTD1RNS
	MOVW R26,R@0
	ADIW R26,@1
	CALL __PUTDP1
	.ENDM

	.MACRO __PUTB1RON
	MOV  R26,R@0
	MOV  R27,R@1
	SUBI R26,LOW(-@2)
	SBCI R27,HIGH(-@2)
	ST   X,R30
	.ENDM

	.MACRO __PUTW1RON
	MOV  R26,R@0
	MOV  R27,R@1
	SUBI R26,LOW(-@2)
	SBCI R27,HIGH(-@2)
	ST   X+,R30
	ST   X,R31
	.ENDM

	.MACRO __PUTD1RON
	MOV  R26,R@0
	MOV  R27,R@1
	SUBI R26,LOW(-@2)
	SBCI R27,HIGH(-@2)
	CALL __PUTDP1
	.ENDM

	.MACRO __PUTB1RONS
	MOV  R26,R@0
	MOV  R27,R@1
	ADIW R26,@2
	ST   X,R30
	.ENDM

	.MACRO __PUTW1RONS
	MOV  R26,R@0
	MOV  R27,R@1
	ADIW R26,@2
	ST   X+,R30
	ST   X,R31
	.ENDM

	.MACRO __PUTD1RONS
	MOV  R26,R@0
	MOV  R27,R@1
	ADIW R26,@2
	CALL __PUTDP1
	.ENDM


	.MACRO __GETB1SX
	MOVW R30,R28
	SUBI R30,LOW(-@0)
	SBCI R31,HIGH(-@0)
	LD   R30,Z
	.ENDM

	.MACRO __GETB1HSX
	MOVW R30,R28
	SUBI R30,LOW(-@0)
	SBCI R31,HIGH(-@0)
	LD   R31,Z
	.ENDM

	.MACRO __GETW1SX
	MOVW R30,R28
	SUBI R30,LOW(-@0)
	SBCI R31,HIGH(-@0)
	LD   R0,Z+
	LD   R31,Z
	MOV  R30,R0
	.ENDM

	.MACRO __GETD1SX
	MOVW R30,R28
	SUBI R30,LOW(-@0)
	SBCI R31,HIGH(-@0)
	LD   R0,Z+
	LD   R1,Z+
	LD   R22,Z+
	LD   R23,Z
	MOVW R30,R0
	.ENDM

	.MACRO __GETB2SX
	MOVW R26,R28
	SUBI R26,LOW(-@0)
	SBCI R27,HIGH(-@0)
	LD   R26,X
	.ENDM

	.MACRO __GETW2SX
	MOVW R26,R28
	SUBI R26,LOW(-@0)
	SBCI R27,HIGH(-@0)
	LD   R0,X+
	LD   R27,X
	MOV  R26,R0
	.ENDM

	.MACRO __GETD2SX
	MOVW R26,R28
	SUBI R26,LOW(-@0)
	SBCI R27,HIGH(-@0)
	LD   R0,X+
	LD   R1,X+
	LD   R24,X+
	LD   R25,X
	MOVW R26,R0
	.ENDM

	.MACRO __GETBRSX
	MOVW R30,R28
	SUBI R30,LOW(-@1)
	SBCI R31,HIGH(-@1)
	LD   R@0,Z
	.ENDM

	.MACRO __GETWRSX
	MOVW R30,R28
	SUBI R30,LOW(-@2)
	SBCI R31,HIGH(-@2)
	LD   R@0,Z+
	LD   R@1,Z
	.ENDM

	.MACRO __GETBRSX2
	MOVW R26,R28
	SUBI R26,LOW(-@1)
	SBCI R27,HIGH(-@1)
	LD   R@0,X
	.ENDM

	.MACRO __GETWRSX2
	MOVW R26,R28
	SUBI R26,LOW(-@2)
	SBCI R27,HIGH(-@2)
	LD   R@0,X+
	LD   R@1,X
	.ENDM

	.MACRO __LSLW8SX
	MOVW R30,R28
	SUBI R30,LOW(-@0)
	SBCI R31,HIGH(-@0)
	LD   R31,Z
	CLR  R30
	.ENDM

	.MACRO __PUTB1SX
	MOVW R26,R28
	SUBI R26,LOW(-@0)
	SBCI R27,HIGH(-@0)
	ST   X,R30
	.ENDM

	.MACRO __PUTW1SX
	MOVW R26,R28
	SUBI R26,LOW(-@0)
	SBCI R27,HIGH(-@0)
	ST   X+,R30
	ST   X,R31
	.ENDM

	.MACRO __PUTD1SX
	MOVW R26,R28
	SUBI R26,LOW(-@0)
	SBCI R27,HIGH(-@0)
	ST   X+,R30
	ST   X+,R31
	ST   X+,R22
	ST   X,R23
	.ENDM

	.MACRO __CLRW1SX
	MOVW R26,R28
	SUBI R26,LOW(-@0)
	SBCI R27,HIGH(-@0)
	ST   X+,R30
	ST   X,R30
	.ENDM

	.MACRO __CLRD1SX
	MOVW R26,R28
	SUBI R26,LOW(-@0)
	SBCI R27,HIGH(-@0)
	ST   X+,R30
	ST   X+,R30
	ST   X+,R30
	ST   X,R30
	.ENDM

	.MACRO __PUTB2SX
	MOVW R30,R28
	SUBI R30,LOW(-@0)
	SBCI R31,HIGH(-@0)
	ST   Z,R26
	.ENDM

	.MACRO __PUTW2SX
	MOVW R30,R28
	SUBI R30,LOW(-@0)
	SBCI R31,HIGH(-@0)
	ST   Z+,R26
	ST   Z,R27
	.ENDM

	.MACRO __PUTD2SX
	MOVW R30,R28
	SUBI R30,LOW(-@0)
	SBCI R31,HIGH(-@0)
	ST   Z+,R26
	ST   Z+,R27
	ST   Z+,R24
	ST   Z,R25
	.ENDM

	.MACRO __PUTBSRX
	MOVW R30,R28
	SUBI R30,LOW(-@1)
	SBCI R31,HIGH(-@1)
	ST   Z,R@0
	.ENDM

	.MACRO __PUTWSRX
	MOVW R30,R28
	SUBI R30,LOW(-@2)
	SBCI R31,HIGH(-@2)
	ST   Z+,R@0
	ST   Z,R@1
	.ENDM

	.MACRO __PUTB1SNX
	MOVW R26,R28
	SUBI R26,LOW(-@0)
	SBCI R27,HIGH(-@0)
	LD   R0,X+
	LD   R27,X
	MOV  R26,R0
	SUBI R26,LOW(-@1)
	SBCI R27,HIGH(-@1)
	ST   X,R30
	.ENDM

	.MACRO __PUTW1SNX
	MOVW R26,R28
	SUBI R26,LOW(-@0)
	SBCI R27,HIGH(-@0)
	LD   R0,X+
	LD   R27,X
	MOV  R26,R0
	SUBI R26,LOW(-@1)
	SBCI R27,HIGH(-@1)
	ST   X+,R30
	ST   X,R31
	.ENDM

	.MACRO __PUTD1SNX
	MOVW R26,R28
	SUBI R26,LOW(-@0)
	SBCI R27,HIGH(-@0)
	LD   R0,X+
	LD   R27,X
	MOV  R26,R0
	SUBI R26,LOW(-@1)
	SBCI R27,HIGH(-@1)
	ST   X+,R30
	ST   X+,R31
	ST   X+,R22
	ST   X,R23
	.ENDM

	.MACRO __MULBRR
	MULS R@0,R@1
	MOVW R30,R0
	.ENDM

	.MACRO __MULBRRU
	MUL  R@0,R@1
	MOVW R30,R0
	.ENDM

	.MACRO __MULBRR0
	MULS R@0,R@1
	.ENDM

	.MACRO __MULBRRU0
	MUL  R@0,R@1
	.ENDM

	.MACRO __MULBNWRU
	LDI  R26,@2
	MUL  R26,R@0
	MOVW R30,R0
	MUL  R26,R@1
	ADD  R31,R0
	.ENDM

;NAME DEFINITIONS FOR GLOBAL VARIABLES ALLOCATED TO REGISTERS
	.DEF _blink=R5
	.DEF _is_show_clock=R4
	.DEF _is_sim_init_ok=R7
	.DEF _x=R8
	.DEF _x_msb=R9
	.DEF _y=R10
	.DEF _y_msb=R11
	.DEF _week_day=R6
	.DEF _day=R13
	.DEF _month=R12

	.CSEG
	.ORG 0x00

;START OF CODE MARKER
__START_OF_CODE:

;INTERRUPT VECTORS
	JMP  __RESET
	JMP  0x00
	JMP  0x00
	JMP  0x00
	JMP  0x00
	JMP  0x00
	JMP  0x00
	JMP  0x00
	JMP  0x00
	JMP  0x00
	JMP  0x00
	JMP  0x00
	JMP  0x00
	JMP  0x00
	JMP  0x00
	JMP  0x00
	JMP  _timer0_ovf_isr
	JMP  0x00
	JMP  0x00
	JMP  0x00
	JMP  0x00
	JMP  0x00
	JMP  0x00
	JMP  0x00
	JMP  0x00
	JMP  0x00
	JMP  0x00
	JMP  0x00
	JMP  0x00
	JMP  0x00
	JMP  _usart1_rx_isr
	JMP  0x00
	JMP  _usart1_tx_isr
	JMP  0x00
	JMP  0x00

_font5x7:
	.DB  0x5,0x7,0x20,0x60,0x0,0x0,0x0,0x0
	.DB  0x0,0x0,0x0,0x4,0xA,0x4,0x0,0x7
	.DB  0x0,0x7,0x0,0x14,0x7F,0x14,0x7F,0x14
	.DB  0x24,0x2A,0x7F,0x2A,0x12,0x23,0x13,0x8
	.DB  0x64,0x62,0x36,0x49,0x55,0x22,0x50,0x0
	.DB  0x5,0x3,0x0,0x0,0x0,0x1C,0x22,0x41
	.DB  0x0,0x0,0x41,0x22,0x1C,0x0,0x8,0x2A
	.DB  0x1C,0x2A,0x8,0x8,0x8,0x3E,0x8,0x8
	.DB  0x0,0x50,0x30,0x0,0x0,0x8,0x8,0x8
	.DB  0x8,0x8,0x0,0x30,0x30,0x0,0x0,0x20
	.DB  0x10,0x8,0x4,0x2,0x3E,0x51,0x49,0x45
	.DB  0x3E,0x0,0x42,0x7F,0x40,0x0,0x42,0x61
	.DB  0x51,0x49,0x46,0x21,0x41,0x45,0x4B,0x31
	.DB  0x18,0x14,0x12,0x7F,0x10,0x27,0x45,0x45
	.DB  0x45,0x39,0x3C,0x4A,0x49,0x49,0x30,0x1
	.DB  0x71,0x9,0x5,0x3,0x36,0x49,0x49,0x49
	.DB  0x36,0x6,0x49,0x49,0x29,0x1E,0x0,0x36
	.DB  0x36,0x0,0x0,0x0,0x56,0x36,0x0,0x0
	.DB  0x0,0x8,0x14,0x22,0x41,0x14,0x14,0x14
	.DB  0x14,0x14,0x41,0x22,0x14,0x8,0x0,0x2
	.DB  0x1,0x51,0x9,0x6,0x32,0x49,0x79,0x41
	.DB  0x3E,0x7E,0x11,0x11,0x11,0x7E,0x7F,0x49
	.DB  0x49,0x49,0x36,0x3E,0x41,0x41,0x41,0x22
	.DB  0x7F,0x41,0x41,0x22,0x1C,0x7F,0x49,0x49
	.DB  0x49,0x41,0x7F,0x9,0x9,0x1,0x1,0x3E
	.DB  0x41,0x41,0x51,0x32,0x7F,0x8,0x8,0x8
	.DB  0x7F,0x0,0x41,0x7F,0x41,0x0,0x20,0x40
	.DB  0x41,0x3F,0x1,0x7F,0x8,0x14,0x22,0x41
	.DB  0x7F,0x40,0x40,0x40,0x40,0x7F,0x2,0x4
	.DB  0x2,0x7F,0x7F,0x4,0x8,0x10,0x7F,0x3E
	.DB  0x41,0x41,0x41,0x3E,0x7F,0x9,0x9,0x9
	.DB  0x6,0x3E,0x41,0x51,0x21,0x5E,0x7F,0x9
	.DB  0x19,0x29,0x46,0x46,0x49,0x49,0x49,0x31
	.DB  0x1,0x1,0x7F,0x1,0x1,0x3F,0x40,0x40
	.DB  0x40,0x3F,0x1F,0x20,0x40,0x20,0x1F,0x7F
	.DB  0x20,0x18,0x20,0x7F,0x63,0x14,0x8,0x14
	.DB  0x63,0x3,0x4,0x78,0x4,0x3,0x61,0x51
	.DB  0x49,0x45,0x43,0x0,0x0,0x7F,0x41,0x41
	.DB  0x2,0x4,0x8,0x10,0x20,0x41,0x41,0x7F
	.DB  0x0,0x0,0x4,0x2,0x1,0x2,0x4,0x40
	.DB  0x40,0x40,0x40,0x40,0x0,0x1,0x2,0x4
	.DB  0x0,0x20,0x54,0x54,0x54,0x78,0x7F,0x48
	.DB  0x44,0x44,0x38,0x38,0x44,0x44,0x44,0x20
	.DB  0x38,0x44,0x44,0x48,0x7F,0x38,0x54,0x54
	.DB  0x54,0x18,0x8,0x7E,0x9,0x1,0x2,0x8
	.DB  0x14,0x54,0x54,0x3C,0x7F,0x8,0x4,0x4
	.DB  0x78,0x0,0x44,0x7D,0x40,0x0,0x20,0x40
	.DB  0x44,0x3D,0x0,0x0,0x7F,0x10,0x28,0x44
	.DB  0x0,0x41,0x7F,0x40,0x0,0x7C,0x4,0x18
	.DB  0x4,0x78,0x7C,0x8,0x4,0x4,0x78,0x38
	.DB  0x44,0x44,0x44,0x38,0x7C,0x14,0x14,0x14
	.DB  0x8,0x8,0x14,0x14,0x18,0x7C,0x7C,0x8
	.DB  0x4,0x4,0x8,0x48,0x54,0x54,0x54,0x20
	.DB  0x4,0x3F,0x44,0x40,0x20,0x3C,0x40,0x40
	.DB  0x20,0x7C,0x1C,0x20,0x40,0x20,0x1C,0x3C
	.DB  0x40,0x30,0x40,0x3C,0x44,0x28,0x10,0x28
	.DB  0x44,0xC,0x50,0x50,0x50,0x3C,0x44,0x64
	.DB  0x54,0x4C,0x44,0x0,0x8,0x36,0x41,0x0
	.DB  0x0,0x0,0x7F,0x0,0x0,0x0,0x41,0x36
	.DB  0x8,0x0,0x2,0x1,0x2,0x4,0x2,0x7F
	.DB  0x41,0x41,0x41,0x7F
_big_letter_10x14:
	.DB  0x0,0xE,0x30,0x2B,0xA,0xA,0xA,0xA
	.DB  0xA,0xA,0xA,0xA,0xA,0xA,0xA,0xA
	.DB  0xA,0xA,0xA,0xA,0x9,0xA,0xA,0xA
	.DB  0xA,0xA,0xA,0xA,0xA,0xA,0xA,0xA
	.DB  0xA,0xA,0xA,0xA,0xA,0xA,0xA,0xA
	.DB  0xA,0xA,0xA,0xA,0xA,0xA,0xA,0x0
	.DB  0xFC,0xFE,0x3,0x3,0x3,0x3,0xFE,0xFC
	.DB  0x0,0x0,0xF,0x1F,0x30,0x30,0x30,0x30
	.DB  0x1F,0xF,0x0,0x0,0x18,0xC,0x6,0xFF
	.DB  0xFF,0x0,0x0,0x0,0x0,0x0,0x30,0x30
	.DB  0x30,0x3F,0x3F,0x30,0x30,0x30,0x0,0x0
	.DB  0xC,0xE,0x3,0x3,0x83,0xC3,0x7E,0x3C
	.DB  0x0,0x0,0x38,0x3C,0x36,0x33,0x31,0x30
	.DB  0x30,0x30,0x0,0x0,0xC,0xE,0xC3,0xC3
	.DB  0xC3,0xC3,0xFE,0x3C,0x0,0x0,0xC,0x1C
	.DB  0x30,0x30,0x30,0x30,0x1F,0xF,0x0,0x0
	.DB  0xC0,0xE0,0xB0,0x98,0x8C,0x86,0xFF,0xFF
	.DB  0x80,0x0,0x1,0x1,0x1,0x1,0x1,0x1
	.DB  0x3F,0x3F,0x1,0x0,0x7F,0x7F,0x63,0x63
	.DB  0x63,0x63,0xC3,0x83,0x0,0x0,0xC,0x1C
	.DB  0x30,0x30,0x30,0x30,0x1F,0xF,0x0,0x0
	.DB  0xFC,0xFE,0xC3,0xC3,0xC3,0xC3,0x8E,0xC
	.DB  0x0,0x0,0xF,0x1F,0x30,0x30,0x30,0x30
	.DB  0x1F,0xF,0x0,0x0,0x3,0x3,0x3,0x3
	.DB  0xC3,0xF3,0x3F,0xF,0x0,0x0,0x0,0x0
	.DB  0x0,0x3E,0x3F,0x3,0x0,0x0,0x0,0x0
	.DB  0x3C,0xFE,0xC3,0xC3,0xC3,0xC3,0xFE,0x3C
	.DB  0x0,0x0,0xF,0x1F,0x30,0x30,0x30,0x30
	.DB  0x1F,0xF,0x0,0x0,0x3C,0x7E,0xC3,0xC3
	.DB  0xC3,0xC3,0xFE,0xFC,0x0,0x0,0xC,0x1C
	.DB  0x30,0x30,0x30,0x30,0x1F,0xF,0x0,0x0
	.DB  0x0,0x0,0x18,0x3C,0x3C,0x18,0x0,0x0
	.DB  0x0,0x0,0x0,0x0,0xC,0x1E,0x1E,0xC
	.DB  0x0,0x0,0x0,0x0,0x0,0x0,0x0,0x0
	.DB  0x0,0x0,0x0,0x0,0x0,0x0,0x0,0x0
	.DB  0x0,0x0,0x0,0x0,0x0,0x0,0x0,0x0
	.DB  0x0,0x0,0x0,0x0,0x0,0x0,0x0,0x0
	.DB  0x0,0x0,0x0,0x0,0x0,0x0,0x0,0x0
	.DB  0x0,0x0,0x0,0x0,0x0,0x0,0x0,0x0
	.DB  0x0,0x0,0x0,0x0,0x0,0x0,0x0,0x0
	.DB  0x0,0x0,0x0,0x0,0x0,0x0,0x0,0x0
	.DB  0x0,0x0,0x0,0x0,0x0,0x0,0x0,0x0
	.DB  0x0,0x0,0x0,0x0,0x0,0x0,0x0,0x0
	.DB  0x0,0x0,0x0,0x0,0x0,0x0,0x0,0x0
	.DB  0x0,0x0,0x0,0x0,0x0,0x0,0x0,0x0
	.DB  0x0,0x0,0x0,0x0,0x0,0x0,0x0,0x20
	.DB  0x60,0xE0,0xE0,0xE0,0xE0,0xE0,0x60,0x20
	.DB  0x0,0x0,0x0,0x1,0x3,0x1,0x0,0x0
	.DB  0x0,0xFC,0xFE,0x83,0x83,0x83,0x83,0x83
	.DB  0x83,0xFE,0xFC,0x3F,0x3F,0x1,0x1,0x1
	.DB  0x1,0x1,0x1,0x3F,0x3F,0xFF,0xFF,0xC3
	.DB  0xC3,0xC3,0xC3,0xC3,0xC3,0xFE,0x3C,0x3F
	.DB  0x3F,0x30,0x30,0x30,0x30,0x30,0x30,0x1F
	.DB  0xF,0xF8,0xFC,0x6,0x3,0x3,0x3,0x3
	.DB  0x3,0xE,0xC,0x7,0xF,0x18,0x30,0x30
	.DB  0x30,0x30,0x30,0x1C,0xC,0xFF,0xFF,0x3
	.DB  0x3,0x3,0x3,0x3,0x6,0xFC,0xF8,0x3F
	.DB  0x3F,0x30,0x30,0x30,0x30,0x30,0x18,0xF
	.DB  0x7,0xFF,0xFF,0xC3,0xC3,0xC3,0xC3,0xC3
	.DB  0xC3,0xC3,0x3,0x3F,0x3F,0x30,0x30,0x30
	.DB  0x30,0x30,0x30,0x30,0x30,0xFF,0xFF,0xC3
	.DB  0xC3,0xC3,0xC3,0xC3,0x3,0x3,0x3,0x3F
	.DB  0x3F,0x0,0x0,0x0,0x0,0x0,0x0,0x0
	.DB  0x0,0xF8,0xFC,0x6,0x3,0x3,0x3,0x83
	.DB  0x8E,0x8C,0x80,0x7,0xF,0x18,0x30,0x30
	.DB  0x30,0x31,0x3F,0x1F,0x1,0xFF,0xFF,0xC0
	.DB  0xC0,0xC0,0xC0,0xC0,0xC0,0xFF,0xFF,0x3F
	.DB  0x3F,0x0,0x0,0x0,0x0,0x0,0x0,0x3F
	.DB  0x3F,0x0,0x0,0x3,0x3,0xFF,0xFF,0x3
	.DB  0x3,0x0,0x0,0x0,0x0,0x30,0x30,0x3F
	.DB  0x3F,0x30,0x30,0x0,0x0,0x0,0x0,0x0
	.DB  0x3,0x3,0xFF,0xFF,0x3,0x3,0x0,0xC
	.DB  0x1C,0x30,0x30,0x30,0x1F,0xF,0x0,0x0
	.DB  0x0,0xFF,0xFF,0xC0,0xE0,0x30,0x18,0xC
	.DB  0x6,0x3,0x1,0x3F,0x3F,0x0,0x1,0x3
	.DB  0x6,0xC,0x18,0x30,0x20,0xFF,0xFF,0x0
	.DB  0x0,0x0,0x0,0x0,0x0,0x0,0x0,0x3F
	.DB  0x3F,0x30,0x30,0x30,0x30,0x30,0x30,0x30
	.DB  0x30,0xFF,0xFF,0x1C,0x70,0xC0,0xC0,0x70
	.DB  0x1C,0xFF,0xFF,0x3F,0x3F,0x0,0x0,0x1
	.DB  0x1,0x0,0x0,0x3F,0x3F,0xFF,0xFF,0xE
	.DB  0x38,0xE0,0x80,0x0,0x0,0xFF,0xFF,0x3F
	.DB  0x3F,0x0,0x0,0x0,0x3,0xE,0x18,0x3F
	.DB  0x3F,0xF8,0xFC,0x6,0x3,0x3,0x3,0x3
	.DB  0x6,0xFC,0xF8,0x7,0xF,0x18,0x30,0x30
	.DB  0x30,0x30,0x18,0xF,0x7,0xFF,0xFF,0xC3
	.DB  0xC3,0xC3,0xC3,0xC3,0xE7,0x7E,0x3C,0x3F
	.DB  0x3F,0x0,0x0,0x0,0x0,0x0,0x0,0x0
	.DB  0x0,0xF8,0xFC,0x6,0x3,0x3,0x3,0x3
	.DB  0x6,0xFC,0xF8,0x7,0xF,0x18,0x30,0x30
	.DB  0x34,0x3C,0x18,0x3F,0x27,0xFF,0xFF,0xC3
	.DB  0xC3,0xC3,0xC3,0xE7,0x7E,0x3C,0x0,0x3F
	.DB  0x3F,0x1,0x3,0x7,0xE,0x1C,0x38,0x30
	.DB  0x20,0x3C,0x7E,0xC3,0xC3,0xC3,0xC3,0xC3
	.DB  0xC3,0x8E,0xC,0xC,0x1C,0x30,0x30,0x30
	.DB  0x30,0x30,0x30,0x1F,0xF,0x3,0x3,0x3
	.DB  0x3,0xFF,0xFF,0x3,0x3,0x3,0x3,0x0
	.DB  0x0,0x0,0x0,0x3F,0x3F,0x0,0x0,0x0
	.DB  0x0,0xFF,0xFF,0x0,0x0,0x0,0x0,0x0
	.DB  0x0,0xFF,0xFF,0xF,0x1F,0x30,0x30,0x30
	.DB  0x30,0x30,0x30,0x1F,0xF,0xFF,0xFF,0x0
	.DB  0x0,0x0,0x0,0x0,0x0,0xFF,0xFF,0x3
	.DB  0x7,0xC,0x18,0x30,0x30,0x18,0xC,0x7
	.DB  0x3,0xFF,0xFF,0x0,0x80,0xE0,0xE0,0x80
	.DB  0x0,0xFF,0xFF,0x3F,0x3F,0xE,0x3,0x0
	.DB  0x0,0x3,0xE,0x3F,0x3F,0xF,0x1F,0xB0
	.DB  0xE0,0xC0,0xC0,0xE0,0xB0,0x1F,0xF,0x3E
	.DB  0x3F,0x3,0x1,0x0,0x0,0x1,0x3,0x3F
	.DB  0x3E,0x1F,0x3F,0x60,0xC0,0x80,0x80,0xC0
	.DB  0x60,0x3F,0x1F,0x0,0x0,0x0,0x0,0x3F
	.DB  0x3F,0x0,0x0,0x0,0x0,0x3,0x3,0x3
	.DB  0x83,0xC3,0x63,0x33,0x1B,0xF,0x7,0x3C
	.DB  0x3E,0x33,0x31,0x30,0x30,0x30,0x30,0x30
	.DB  0x30
_tiny_letter:
	.DB  0x0,0x5,0x20,0x3B,0x1,0x4,0x3,0x4
	.DB  0x4,0x4,0x4,0x4,0x4,0x4,0x4,0x4
	.DB  0x4,0x4,0x4,0x4,0x4,0x3,0x4,0x4
	.DB  0x4,0x4,0x4,0x4,0x4,0x4,0x3,0x4
	.DB  0x4,0x4,0x4,0x4,0x4,0x4,0x4,0x4
	.DB  0x4,0x4,0x4,0x4,0x4,0x1,0x4,0x4
	.DB  0x3,0x5,0x4,0x4,0x4,0x4,0x4,0x4
	.DB  0x3,0x4,0x4,0x5,0x4,0x3,0x3,0x0
	.DB  0x0,0x0,0x0,0x0,0x0,0x0,0x0,0x0
	.DB  0x0,0x0,0x0,0x0,0x0,0x0,0x0,0x0
	.DB  0x0,0x0,0x0,0x0,0x0,0x0,0x0,0x0
	.DB  0x0,0x0,0x0,0x0,0x0,0x0,0x0,0x0
	.DB  0x0,0x0,0x0,0x0,0x0,0x0,0x0,0x0
	.DB  0x0,0x0,0x0,0x0,0x0,0x0,0x0,0x0
	.DB  0x0,0x0,0x0,0x0,0x0,0x0,0x0,0x18
	.DB  0x6,0x1,0x0,0xE,0x11,0x11,0xE,0x12
	.DB  0x1F,0x10,0x19,0x15,0x15,0x12,0x11,0x15
	.DB  0x15,0xA,0xC,0xA,0x1F,0x8,0x17,0x15
	.DB  0x15,0x9,0xE,0x15,0x15,0x8,0x1,0x19
	.DB  0x5,0x3,0xA,0x15,0x15,0xA,0x2,0x15
	.DB  0x15,0xE,0x0,0xA,0x0,0x0,0x10,0xA
	.DB  0x0,0x4,0xA,0x11,0x0,0xA,0xA,0xA
	.DB  0xA,0x0,0x11,0xA,0x4,0x0,0x1,0x15
	.DB  0x2,0x0,0x0,0x0,0x0,0x1E,0x5,0x5
	.DB  0x1E,0x1F,0x15,0x15,0xA,0xE,0x11,0x11
	.DB  0xA,0x1F,0x11,0x11,0xE,0x1F,0x15,0x15
	.DB  0x11,0x1F,0x5,0x5,0x1,0xE,0x11,0x19
	.DB  0xA,0x1F,0x4,0x4,0x1F,0x1F,0x8,0x11
	.DB  0xF,0x1,0x1F,0x4,0xA,0x11,0x1F,0x10
	.DB  0x10,0x1F,0x2,0x4,0x2,0x1F,0x1F,0x2
	.DB  0x4,0x1F,0xE,0x11,0x11,0xE,0x1F,0x5
	.DB  0x5,0x2,0xE,0x11,0x19,0x1E,0x1F,0x5
	.DB  0xD,0x12,0x12,0x15,0x15,0x9,0x1,0x1F
	.DB  0x1,0xF,0x10,0x10,0xF,0x7,0x18,0x18
	.DB  0x7,0x1F,0x8,0x4,0x8,0x1F,0x1B,0x4
	.DB  0x4,0x1B,0x3,0x1C,0x3,0x19,0x15,0x13
_relay_icon_7x7:
	.DB  0x7,0x7,0x30,0x2,0x1C,0x22,0x41,0x41
	.DB  0x41,0x22,0x1C,0x1C,0x3E,0x7F,0x7F,0x7F
	.DB  0x3E,0x1C
_relay_icon_10x14:
	.DB  0xA,0xE,0x30,0x2,0xE0,0xF0,0x18,0xC
	.DB  0xC,0xC,0xC,0x18,0xF0,0xE0,0x3,0x7
	.DB  0xC,0x18,0x18,0x18,0x18,0xC,0x7,0x3
	.DB  0xE0,0xF0,0xF8,0xFC,0xFC,0xFC,0xFC,0xF8
	.DB  0xF0,0xE0,0x3,0x7,0xF,0x1F,0x1F,0x1F
	.DB  0x1F,0xF,0x7,0x3
_phone_signal_10x5:
	.DB  0x0,0x5,0x30,0x7,0xA,0x9,0x9,0x9
	.DB  0x9,0x9,0xA,0x5,0x12,0x5,0x18,0x0
	.DB  0x1C,0x0,0x1E,0x0,0x1F,0x10,0x0,0x0
	.DB  0x0,0x0,0x0,0x0,0x0,0x0,0x10,0x0
	.DB  0x18,0x0,0x0,0x0,0x0,0x0,0x0,0x10
	.DB  0x0,0x18,0x0,0x1C,0x0,0x0,0x0,0x0
	.DB  0x10,0x0,0x18,0x0,0x1C,0x0,0x1E,0x0
	.DB  0x0,0x10,0x0,0x18,0x0,0x1C,0x0,0x1E
	.DB  0x0,0x1F,0x0,0x0,0x0,0x0,0x0,0x0
	.DB  0x0,0x0,0x0,0x0
__glcd_mask:
	.DB  0x0,0x1,0x3,0x7,0xF,0x1F,0x3F,0x7F
	.DB  0xFF

;REGISTER BIT VARIABLES INITIALIZATION
__REG_BIT_VARS:
	.DW  0x0000

;GLOBAL REGISTER VARIABLES INITIALIZATION
__REG_VARS:
	.DB  0x0,0x1,0x1,0x1
	.DB  0xA,0x0,0xF,0x0
	.DB  0x1,0x1

_0x3:
	.DB  LOW(_0x0*2),HIGH(_0x0*2),LOW(_0x0*2+2),HIGH(_0x0*2+2),LOW(_0x0*2+6),HIGH(_0x0*2+6),LOW(_0x0*2+10),HIGH(_0x0*2+10)
	.DB  LOW(_0x0*2+14),HIGH(_0x0*2+14),LOW(_0x0*2+18),HIGH(_0x0*2+18),LOW(_0x0*2+22),HIGH(_0x0*2+22),LOW(_0x0*2+26),HIGH(_0x0*2+26)
_0x4:
	.DB  LOW(_0x0*2+30),HIGH(_0x0*2+30),LOW(_0x0*2+32),HIGH(_0x0*2+32),LOW(_0x0*2+35),HIGH(_0x0*2+35),LOW(_0x0*2+38),HIGH(_0x0*2+38)
	.DB  LOW(_0x0*2+41),HIGH(_0x0*2+41),LOW(_0x0*2+44),HIGH(_0x0*2+44),LOW(_0x0*2+47),HIGH(_0x0*2+47),LOW(_0x0*2+50),HIGH(_0x0*2+50)
	.DB  LOW(_0x0*2+53),HIGH(_0x0*2+53),LOW(_0x0*2+56),HIGH(_0x0*2+56),LOW(_0x0*2+59),HIGH(_0x0*2+59),LOW(_0x0*2+62),HIGH(_0x0*2+62)
	.DB  LOW(_0x0*2+65),HIGH(_0x0*2+65),LOW(_0x0*2+68),HIGH(_0x0*2+68),LOW(_0x0*2+71),HIGH(_0x0*2+71),LOW(_0x0*2+74),HIGH(_0x0*2+74)
	.DB  LOW(_0x0*2+77),HIGH(_0x0*2+77),LOW(_0x0*2+80),HIGH(_0x0*2+80),LOW(_0x0*2+83),HIGH(_0x0*2+83),LOW(_0x0*2+86),HIGH(_0x0*2+86)
	.DB  LOW(_0x0*2+89),HIGH(_0x0*2+89),LOW(_0x0*2+92),HIGH(_0x0*2+92),LOW(_0x0*2+95),HIGH(_0x0*2+95),LOW(_0x0*2+98),HIGH(_0x0*2+98)
	.DB  LOW(_0x0*2+101),HIGH(_0x0*2+101),LOW(_0x0*2+104),HIGH(_0x0*2+104),LOW(_0x0*2+107),HIGH(_0x0*2+107),LOW(_0x0*2+110),HIGH(_0x0*2+110)
	.DB  LOW(_0x0*2+113),HIGH(_0x0*2+113),LOW(_0x0*2+116),HIGH(_0x0*2+116),LOW(_0x0*2+119),HIGH(_0x0*2+119),LOW(_0x0*2+122),HIGH(_0x0*2+122)
_0x5:
	.DB  LOW(_0x0*2+125),HIGH(_0x0*2+125),LOW(_0x0*2+127),HIGH(_0x0*2+127),LOW(_0x0*2+131),HIGH(_0x0*2+131),LOW(_0x0*2+135),HIGH(_0x0*2+135)
	.DB  LOW(_0x0*2+139),HIGH(_0x0*2+139),LOW(_0x0*2+143),HIGH(_0x0*2+143),LOW(_0x0*2+147),HIGH(_0x0*2+147),LOW(_0x0*2+151),HIGH(_0x0*2+151)
	.DB  LOW(_0x0*2+155),HIGH(_0x0*2+155),LOW(_0x0*2+159),HIGH(_0x0*2+159),LOW(_0x0*2+163),HIGH(_0x0*2+163),LOW(_0x0*2+167),HIGH(_0x0*2+167)
	.DB  LOW(_0x0*2+171),HIGH(_0x0*2+171)
_0x6:
	.DB  LOW(_0x0*2+175),HIGH(_0x0*2+175),LOW(_0x0*2+180),HIGH(_0x0*2+180),LOW(_0x0*2+185),HIGH(_0x0*2+185),LOW(_0x0*2+190),HIGH(_0x0*2+190)
	.DB  LOW(_0x0*2+195),HIGH(_0x0*2+195),LOW(_0x0*2+200),HIGH(_0x0*2+200),LOW(_0x0*2+205),HIGH(_0x0*2+205),LOW(_0x0*2+210),HIGH(_0x0*2+210)
	.DB  LOW(_0x0*2+215),HIGH(_0x0*2+215),LOW(_0x0*2+220),HIGH(_0x0*2+220),LOW(_0x0*2+225),HIGH(_0x0*2+225),LOW(_0x0*2+230),HIGH(_0x0*2+230)
	.DB  LOW(_0x0*2+235),HIGH(_0x0*2+235),LOW(_0x0*2+240),HIGH(_0x0*2+240),LOW(_0x0*2+245),HIGH(_0x0*2+245),LOW(_0x0*2+250),HIGH(_0x0*2+250)
_0x7:
	.DB  LOW(_0x0*2+255),HIGH(_0x0*2+255),LOW(_0x0*2+32),HIGH(_0x0*2+32),LOW(_0x0*2+35),HIGH(_0x0*2+35),LOW(_0x0*2+38),HIGH(_0x0*2+38)
	.DB  LOW(_0x0*2+41),HIGH(_0x0*2+41),LOW(_0x0*2+44),HIGH(_0x0*2+44),LOW(_0x0*2+47),HIGH(_0x0*2+47),LOW(_0x0*2+50),HIGH(_0x0*2+50)
	.DB  LOW(_0x0*2+53),HIGH(_0x0*2+53),LOW(_0x0*2+56),HIGH(_0x0*2+56),LOW(_0x0*2+59),HIGH(_0x0*2+59),LOW(_0x0*2+62),HIGH(_0x0*2+62)
	.DB  LOW(_0x0*2+65),HIGH(_0x0*2+65),LOW(_0x0*2+68),HIGH(_0x0*2+68),LOW(_0x0*2+71),HIGH(_0x0*2+71),LOW(_0x0*2+74),HIGH(_0x0*2+74)
	.DB  LOW(_0x0*2+77),HIGH(_0x0*2+77),LOW(_0x0*2+80),HIGH(_0x0*2+80),LOW(_0x0*2+83),HIGH(_0x0*2+83),LOW(_0x0*2+86),HIGH(_0x0*2+86)
	.DB  LOW(_0x0*2+89),HIGH(_0x0*2+89),LOW(_0x0*2+92),HIGH(_0x0*2+92),LOW(_0x0*2+95),HIGH(_0x0*2+95),LOW(_0x0*2+98),HIGH(_0x0*2+98)
	.DB  LOW(_0x0*2+101),HIGH(_0x0*2+101),LOW(_0x0*2+104),HIGH(_0x0*2+104),LOW(_0x0*2+107),HIGH(_0x0*2+107),LOW(_0x0*2+110),HIGH(_0x0*2+110)
	.DB  LOW(_0x0*2+113),HIGH(_0x0*2+113),LOW(_0x0*2+116),HIGH(_0x0*2+116),LOW(_0x0*2+119),HIGH(_0x0*2+119),LOW(_0x0*2+122),HIGH(_0x0*2+122)
	.DB  LOW(_0x0*2+252),HIGH(_0x0*2+252),LOW(_0x0*2+258),HIGH(_0x0*2+258),LOW(_0x0*2+261),HIGH(_0x0*2+261),LOW(_0x0*2+264),HIGH(_0x0*2+264)
	.DB  LOW(_0x0*2+267),HIGH(_0x0*2+267),LOW(_0x0*2+270),HIGH(_0x0*2+270),LOW(_0x0*2+273),HIGH(_0x0*2+273),LOW(_0x0*2+276),HIGH(_0x0*2+276)
	.DB  LOW(_0x0*2+279),HIGH(_0x0*2+279),LOW(_0x0*2+282),HIGH(_0x0*2+282),LOW(_0x0*2+285),HIGH(_0x0*2+285),LOW(_0x0*2+288),HIGH(_0x0*2+288)
	.DB  LOW(_0x0*2+291),HIGH(_0x0*2+291),LOW(_0x0*2+294),HIGH(_0x0*2+294),LOW(_0x0*2+297),HIGH(_0x0*2+297),LOW(_0x0*2+300),HIGH(_0x0*2+300)
	.DB  LOW(_0x0*2+303),HIGH(_0x0*2+303),LOW(_0x0*2+306),HIGH(_0x0*2+306),LOW(_0x0*2+309),HIGH(_0x0*2+309),LOW(_0x0*2+312),HIGH(_0x0*2+312)
	.DB  LOW(_0x0*2+315),HIGH(_0x0*2+315),LOW(_0x0*2+318),HIGH(_0x0*2+318),LOW(_0x0*2+321),HIGH(_0x0*2+321),LOW(_0x0*2+324),HIGH(_0x0*2+324)
	.DB  LOW(_0x0*2+327),HIGH(_0x0*2+327),LOW(_0x0*2+330),HIGH(_0x0*2+330),LOW(_0x0*2+333),HIGH(_0x0*2+333),LOW(_0x0*2+336),HIGH(_0x0*2+336)
_0x8:
	.DB  LOW(_0x0*2+255),HIGH(_0x0*2+255),LOW(_0x0*2+32),HIGH(_0x0*2+32),LOW(_0x0*2+35),HIGH(_0x0*2+35),LOW(_0x0*2+38),HIGH(_0x0*2+38)
	.DB  LOW(_0x0*2+41),HIGH(_0x0*2+41),LOW(_0x0*2+44),HIGH(_0x0*2+44),LOW(_0x0*2+47),HIGH(_0x0*2+47),LOW(_0x0*2+50),HIGH(_0x0*2+50)
	.DB  LOW(_0x0*2+53),HIGH(_0x0*2+53),LOW(_0x0*2+56),HIGH(_0x0*2+56),LOW(_0x0*2+59),HIGH(_0x0*2+59),LOW(_0x0*2+62),HIGH(_0x0*2+62)
	.DB  LOW(_0x0*2+65),HIGH(_0x0*2+65),LOW(_0x0*2+68),HIGH(_0x0*2+68),LOW(_0x0*2+71),HIGH(_0x0*2+71),LOW(_0x0*2+74),HIGH(_0x0*2+74)
	.DB  LOW(_0x0*2+77),HIGH(_0x0*2+77),LOW(_0x0*2+80),HIGH(_0x0*2+80),LOW(_0x0*2+83),HIGH(_0x0*2+83),LOW(_0x0*2+86),HIGH(_0x0*2+86)
	.DB  LOW(_0x0*2+89),HIGH(_0x0*2+89),LOW(_0x0*2+92),HIGH(_0x0*2+92),LOW(_0x0*2+95),HIGH(_0x0*2+95),LOW(_0x0*2+98),HIGH(_0x0*2+98)
	.DB  LOW(_0x0*2+101),HIGH(_0x0*2+101),LOW(_0x0*2+104),HIGH(_0x0*2+104),LOW(_0x0*2+107),HIGH(_0x0*2+107),LOW(_0x0*2+110),HIGH(_0x0*2+110)
	.DB  LOW(_0x0*2+113),HIGH(_0x0*2+113),LOW(_0x0*2+116),HIGH(_0x0*2+116),LOW(_0x0*2+119),HIGH(_0x0*2+119),LOW(_0x0*2+122),HIGH(_0x0*2+122)
	.DB  LOW(_0x0*2+252),HIGH(_0x0*2+252),LOW(_0x0*2+258),HIGH(_0x0*2+258),LOW(_0x0*2+261),HIGH(_0x0*2+261),LOW(_0x0*2+264),HIGH(_0x0*2+264)
	.DB  LOW(_0x0*2+267),HIGH(_0x0*2+267),LOW(_0x0*2+270),HIGH(_0x0*2+270),LOW(_0x0*2+273),HIGH(_0x0*2+273),LOW(_0x0*2+276),HIGH(_0x0*2+276)
	.DB  LOW(_0x0*2+279),HIGH(_0x0*2+279),LOW(_0x0*2+282),HIGH(_0x0*2+282),LOW(_0x0*2+285),HIGH(_0x0*2+285),LOW(_0x0*2+288),HIGH(_0x0*2+288)
	.DB  LOW(_0x0*2+291),HIGH(_0x0*2+291),LOW(_0x0*2+294),HIGH(_0x0*2+294),LOW(_0x0*2+297),HIGH(_0x0*2+297),LOW(_0x0*2+300),HIGH(_0x0*2+300)
	.DB  LOW(_0x0*2+303),HIGH(_0x0*2+303),LOW(_0x0*2+306),HIGH(_0x0*2+306),LOW(_0x0*2+309),HIGH(_0x0*2+309),LOW(_0x0*2+312),HIGH(_0x0*2+312)
	.DB  LOW(_0x0*2+315),HIGH(_0x0*2+315),LOW(_0x0*2+318),HIGH(_0x0*2+318),LOW(_0x0*2+321),HIGH(_0x0*2+321),LOW(_0x0*2+324),HIGH(_0x0*2+324)
	.DB  LOW(_0x0*2+327),HIGH(_0x0*2+327),LOW(_0x0*2+330),HIGH(_0x0*2+330),LOW(_0x0*2+333),HIGH(_0x0*2+333),LOW(_0x0*2+336),HIGH(_0x0*2+336)
_0x9:
	.DB  LOW(_0x0*2+255),HIGH(_0x0*2+255),LOW(_0x0*2+32),HIGH(_0x0*2+32),LOW(_0x0*2+35),HIGH(_0x0*2+35),LOW(_0x0*2+38),HIGH(_0x0*2+38)
	.DB  LOW(_0x0*2+41),HIGH(_0x0*2+41),LOW(_0x0*2+44),HIGH(_0x0*2+44),LOW(_0x0*2+47),HIGH(_0x0*2+47),LOW(_0x0*2+50),HIGH(_0x0*2+50)
	.DB  LOW(_0x0*2+53),HIGH(_0x0*2+53),LOW(_0x0*2+56),HIGH(_0x0*2+56),LOW(_0x0*2+59),HIGH(_0x0*2+59),LOW(_0x0*2+62),HIGH(_0x0*2+62)
	.DB  LOW(_0x0*2+65),HIGH(_0x0*2+65),LOW(_0x0*2+68),HIGH(_0x0*2+68),LOW(_0x0*2+71),HIGH(_0x0*2+71),LOW(_0x0*2+74),HIGH(_0x0*2+74)
	.DB  LOW(_0x0*2+77),HIGH(_0x0*2+77),LOW(_0x0*2+80),HIGH(_0x0*2+80),LOW(_0x0*2+83),HIGH(_0x0*2+83),LOW(_0x0*2+86),HIGH(_0x0*2+86)
	.DB  LOW(_0x0*2+89),HIGH(_0x0*2+89),LOW(_0x0*2+92),HIGH(_0x0*2+92),LOW(_0x0*2+95),HIGH(_0x0*2+95),LOW(_0x0*2+98),HIGH(_0x0*2+98)
_0xA:
	.DB  LOW(_0x0*2+339),HIGH(_0x0*2+339),LOW(_0x0*2+32),HIGH(_0x0*2+32),LOW(_0x0*2+35),HIGH(_0x0*2+35),LOW(_0x0*2+38),HIGH(_0x0*2+38)
	.DB  LOW(_0x0*2+41),HIGH(_0x0*2+41),LOW(_0x0*2+44),HIGH(_0x0*2+44),LOW(_0x0*2+341),HIGH(_0x0*2+341)
_0xB:
	.DB  0x1
_0x97:
	.DB  0x2B,0x38,0x34,0x39,0x38,0x33,0x37,0x31
	.DB  0x32,0x39,0x34,0x31
_0x98:
	.DB  0x65,0x6D
_0x99:
	.DB  0x66,0x67,0x76,0x6A,0x68,0x6A,0x62,0x68
	.DB  0x67,0x6E,0x64,0x78,0x66,0x63,0x69,0x64
	.DB  0x3D,0x36,0x39,0x23,0x7B,0x27,0x6C,0x65
	.DB  0x6E,0x68,0x27,0x3A,0x27,0x2A,0x31,0x6F
	.DB  0x66,0x66,0x23,0x27,0x7D,0x7B,0x27,0x6C
	.DB  0x65,0x6E,0x68,0x27,0x3A,0x27,0x2A,0x32
	.DB  0x6F,0x66,0x66,0x23,0x27,0x7D,0x7B,0x27
	.DB  0x6C,0x65,0x6E,0x68,0x27,0x3A,0x27,0x2A
	.DB  0x33,0x6F,0x6E,0x38,0x23,0x27,0x7D,0x7B
	.DB  0x27,0x6C,0x65,0x6E,0x68,0x27,0x3A,0x27
	.DB  0x2A,0x34,0x6F,0x6E,0x31,0x35,0x23,0x27
	.DB  0x7D,0x20
_0x9A:
	.DB  0xFF,0xFF
_0x9B:
	.DB  0xFF,0xFF
_0x9C:
	.DB  0xFF,0xFF
_0x9D:
	.DB  0xFF,0xFF
_0x0:
	.DB  0x0,0x0,0x53,0x55,0x4E,0x0,0x4D,0x4F
	.DB  0x4E,0x0,0x54,0x55,0x45,0x0,0x57,0x45
	.DB  0x44,0x0,0x54,0x48,0x55,0x0,0x46,0x52
	.DB  0x49,0x0,0x53,0x41,0x54,0x0,0x0,0x0
	.DB  0x30,0x31,0x0,0x30,0x32,0x0,0x30,0x33
	.DB  0x0,0x30,0x34,0x0,0x30,0x35,0x0,0x30
	.DB  0x36,0x0,0x30,0x37,0x0,0x30,0x38,0x0
	.DB  0x30,0x39,0x0,0x31,0x30,0x0,0x31,0x31
	.DB  0x0,0x31,0x32,0x0,0x31,0x33,0x0,0x31
	.DB  0x34,0x0,0x31,0x35,0x0,0x31,0x36,0x0
	.DB  0x31,0x37,0x0,0x31,0x38,0x0,0x31,0x39
	.DB  0x0,0x32,0x30,0x0,0x32,0x31,0x0,0x32
	.DB  0x32,0x0,0x32,0x33,0x0,0x32,0x34,0x0
	.DB  0x32,0x35,0x0,0x32,0x36,0x0,0x32,0x37
	.DB  0x0,0x32,0x38,0x0,0x32,0x39,0x0,0x33
	.DB  0x30,0x0,0x33,0x31,0x0,0x0,0x0,0x4A
	.DB  0x41,0x4E,0x0,0x46,0x45,0x42,0x0,0x4D
	.DB  0x41,0x52,0x0,0x41,0x50,0x52,0x0,0x4D
	.DB  0x41,0x59,0x0,0x4A,0x55,0x4E,0x0,0x4A
	.DB  0x55,0x4C,0x0,0x41,0x55,0x47,0x0,0x53
	.DB  0x45,0x50,0x0,0x4F,0x43,0x54,0x0,0x4E
	.DB  0x4F,0x56,0x0,0x44,0x45,0x43,0x0,0x32
	.DB  0x30,0x31,0x37,0x0,0x32,0x30,0x31,0x38
	.DB  0x0,0x32,0x30,0x31,0x39,0x0,0x32,0x30
	.DB  0x32,0x30,0x0,0x32,0x30,0x32,0x31,0x0
	.DB  0x32,0x30,0x32,0x32,0x0,0x32,0x30,0x32
	.DB  0x33,0x0,0x32,0x30,0x32,0x34,0x0,0x32
	.DB  0x30,0x32,0x35,0x0,0x32,0x30,0x32,0x36
	.DB  0x0,0x32,0x30,0x32,0x37,0x0,0x32,0x30
	.DB  0x32,0x38,0x0,0x32,0x30,0x32,0x39,0x0
	.DB  0x32,0x30,0x33,0x30,0x0,0x32,0x30,0x33
	.DB  0x31,0x0,0x32,0x30,0x33,0x32,0x0,0x30
	.DB  0x30,0x0,0x33,0x33,0x0,0x33,0x34,0x0
	.DB  0x33,0x35,0x0,0x33,0x36,0x0,0x33,0x37
	.DB  0x0,0x33,0x38,0x0,0x33,0x39,0x0,0x34
	.DB  0x30,0x0,0x34,0x31,0x0,0x34,0x32,0x0
	.DB  0x34,0x33,0x0,0x34,0x34,0x0,0x34,0x35
	.DB  0x0,0x34,0x36,0x0,0x34,0x37,0x0,0x34
	.DB  0x38,0x0,0x34,0x39,0x0,0x35,0x30,0x0
	.DB  0x35,0x31,0x0,0x35,0x32,0x0,0x35,0x33
	.DB  0x0,0x35,0x34,0x0,0x35,0x35,0x0,0x35
	.DB  0x36,0x0,0x35,0x37,0x0,0x35,0x38,0x0
	.DB  0x35,0x39,0x0,0x0,0x0,0x41,0x4C,0x4C
	.DB  0x0,0x53,0x50,0x52,0x49,0x4E,0x4B,0x4C
	.DB  0x45,0x0,0x4D,0x65,0x6E,0x75,0x0,0x20
	.DB  0x0,0x3A,0x0,0x3D,0x0,0x4D,0x45,0x4E
	.DB  0x55,0x0,0x53,0x65,0x74,0x20,0x54,0x69
	.DB  0x6D,0x65,0x0,0x53,0x65,0x74,0x20,0x4E
	.DB  0x6F,0x64,0x65,0x0,0x53,0x69,0x6D,0x20
	.DB  0x49,0x6E,0x69,0x74,0x0,0x47,0x65,0x74
	.DB  0x20,0x47,0x50,0x52,0x53,0x0,0x57,0x65
	.DB  0x62,0x73,0x69,0x74,0x65,0x20,0x43,0x4D
	.DB  0x44,0x20,0x0,0x43,0x4D,0x54,0x49,0x0
	.DB  0x4F,0x4B,0x0,0x41,0x54,0x2B,0x43,0x49
	.DB  0x50,0x4D,0x4F,0x44,0x45,0x3D,0x30,0xA
	.DB  0xD,0x0,0x41,0x54,0x2B,0x43,0x49,0x50
	.DB  0x43,0x53,0x47,0x50,0x3D,0x31,0x2C,0x22
	.DB  0x69,0x6E,0x74,0x65,0x72,0x6E,0x65,0x74
	.DB  0x22,0x2C,0x22,0x22,0x2C,0x22,0x22,0xA
	.DB  0xD,0x0,0x41,0x54,0x2B,0x43,0x49,0x50
	.DB  0x48,0x45,0x41,0x44,0x3D,0x30,0xA,0xD
	.DB  0x0,0x41,0x54,0x2B,0x43,0x49,0x50,0x53
	.DB  0x50,0x52,0x54,0x3D,0x31,0xA,0xD,0x0
	.DB  0x41,0x54,0x2B,0x43,0x49,0x50,0x53,0x52
	.DB  0x49,0x50,0x3D,0x30,0xA,0xD,0x0,0x41
	.DB  0x54,0x2B,0x43,0x49,0x50,0x53,0x43,0x4F
	.DB  0x4E,0x54,0xA,0xD,0x0,0x41,0x54,0x2B
	.DB  0x43,0x49,0x50,0x4D,0x55,0x58,0x3D,0x30
	.DB  0xA,0xD,0x0,0x41,0x54,0x2B,0x43,0x43
	.DB  0x41,0x4C,0x52,0x3F,0xA,0xD,0x0,0x41
	.DB  0x54,0x45,0x30,0xA,0xD,0x0,0x41,0x54
	.DB  0x2B,0x43,0x4D,0x47,0x46,0x3D,0x31,0xA
	.DB  0xD,0x0,0x41,0x54,0x2B,0x43,0x4E,0x4D
	.DB  0x49,0x3D,0x32,0x2C,0x31,0x2C,0x30,0x2C
	.DB  0x30,0x2C,0x30,0xA,0xD,0x0,0x41,0x54
	.DB  0x2B,0x43,0x53,0x41,0x53,0xA,0xD,0x0
	.DB  0x41,0x54,0x2B,0x43,0x4D,0x47,0x44,0x3D
	.DB  0x31,0xA,0xD,0x0,0x47,0x6F,0x74,0x20
	.DB  0x6E,0x65,0x77,0x20,0x53,0x4D,0x53,0xA
	.DB  0x0,0x41,0x54,0x2B,0x43,0x4D,0x47,0x52
	.DB  0x3D,0x31,0xA,0xD,0x0,0x53,0x65,0x6E
	.DB  0x64,0x69,0x6E,0x67,0x20,0x53,0x4D,0x53
	.DB  0x2E,0x2E,0x2E,0xA,0x0,0x41,0x54,0x2B
	.DB  0x43,0x4D,0x47,0x46,0x3D,0x31,0xD,0xA
	.DB  0x0,0x41,0x54,0x2B,0x43,0x4D,0x47,0x53
	.DB  0x3D,0x0,0x3E,0x20,0x0,0x2E,0x2E,0x2E
	.DB  0x20,0x64,0x6F,0x6E,0x65,0x21,0x0,0x6F
	.DB  0x6E,0x0,0x6F,0x66,0x66,0x0,0x69,0x6E
	.DB  0x66,0x6F,0x0,0x31,0x3A,0x20,0x0,0xD
	.DB  0x32,0x3A,0x20,0x0,0x20,0x6F,0x6E,0x0
	.DB  0x20,0x6F,0x66,0x66,0x0,0xD,0x33,0x3A
	.DB  0x20,0x0,0xD,0x34,0x3A,0x20,0x0,0xD
	.DB  0x35,0x3A,0x20,0x0,0x47,0x6F,0x74,0x20
	.DB  0x47,0x50,0x52,0x53,0x20,0x43,0x4D,0x44
	.DB  0x20,0xA,0x0,0x41,0x54,0x2B,0x43,0x49
	.DB  0x50,0x53,0x54,0x41,0x52,0x54,0x3D,0x22
	.DB  0x54,0x43,0x50,0x22,0x2C,0x22,0x31,0x30
	.DB  0x33,0x2E,0x31,0x38,0x2E,0x36,0x2E,0x31
	.DB  0x33,0x34,0x22,0x2C,0x38,0x30,0xD,0x0
	.DB  0x43,0x4F,0x4E,0x4E,0x45,0x43,0x54,0x20
	.DB  0x4F,0x4B,0x0,0x41,0x54,0x2B,0x43,0x49
	.DB  0x50,0x53,0x45,0x4E,0x44,0xD,0x0,0x47
	.DB  0x45,0x54,0x20,0x2F,0x69,0x72,0x72,0x69
	.DB  0x67,0x61,0x74,0x69,0x6F,0x6E,0x2F,0x70
	.DB  0x68,0x70,0x2F,0x72,0x65,0x63,0x65,0x69
	.DB  0x76,0x65,0x64,0x61,0x74,0x61,0x2E,0x70
	.DB  0x68,0x70,0x3F,0x76,0x61,0x6C,0x75,0x65
	.DB  0x3D,0x37,0x30,0x20,0x48,0x54,0x54,0x50
	.DB  0x2F,0x31,0x2E,0x31,0xD,0xA,0x0,0x48
	.DB  0x4F,0x53,0x54,0x3A,0x20,0x77,0x77,0x77
	.DB  0x2E,0x6F,0x70,0x65,0x6E,0x72,0x6F,0x62
	.DB  0x6F,0x68,0x75,0x73,0x2E,0x63,0x6F,0x6D
	.DB  0xD,0xA,0x0,0x43,0x6F,0x6E,0x6E,0x65
	.DB  0x63,0x74,0x69,0x6F,0x6E,0x3A,0x20,0x63
	.DB  0x6C,0x6F,0x73,0x65,0xD,0xA,0xD,0xA
	.DB  0x0,0x6F,0x6B,0x0,0x53,0x65,0x6E,0x64
	.DB  0x20,0x44,0x61,0x74,0x61,0xA,0x0,0x47
	.DB  0x45,0x54,0x20,0x2F,0x69,0x72,0x72,0x69
	.DB  0x67,0x61,0x74,0x69,0x6F,0x6E,0x2F,0x70
	.DB  0x68,0x70,0x2F,0x73,0x65,0x6E,0x64,0x64
	.DB  0x61,0x74,0x61,0x2E,0x70,0x68,0x70,0x3F
	.DB  0x76,0x61,0x6C,0x75,0x65,0x3D,0x31,0x2C
	.DB  0x35,0x2C,0x32,0x2C,0x36,0x2C,0x32,0x32
	.DB  0x20,0x48,0x54,0x54,0x50,0x2F,0x31,0x2E
	.DB  0x31,0xD,0xA,0x0,0x64,0x6F,0x6E,0x65
	.DB  0x0,0x41,0x54,0x44,0x2B,0x38,0x34,0x39
	.DB  0x38,0x33,0x37,0x31,0x32,0x39,0x34,0x31
	.DB  0x3B,0xD,0xA,0x0,0x73,0x74,0x61,0x72
	.DB  0x74,0x20,0x67,0x65,0x74,0x20,0x6D,0x6F
	.DB  0x6E,0x65,0x79,0xA,0x0,0x41,0x54,0x2B
	.DB  0x43,0x55,0x53,0x44,0x3D,0x31,0x2C,0x0
	.DB  0x2A,0x31,0x30,0x31,0x23,0x0,0x67,0x65
	.DB  0x74,0x20,0x6D,0x6F,0x6E,0x65,0x79,0x20
	.DB  0x72,0x65,0x73,0x70,0x6F,0x6E,0x73,0x65
	.DB  0x0,0x70,0x75,0x74,0x20,0x6D,0x6F,0x6E
	.DB  0x65,0x79,0x20,0x6F,0x6E,0x20,0x70,0x68
	.DB  0x6F,0x6E,0x65,0xA,0x0,0x2A,0x31,0x30
	.DB  0x30,0x2A,0x0,0x2A,0x34,0x6F,0x6E,0x0
	.DB  0x2A,0x33,0x6F,0x6E,0x0,0x2A,0x32,0x6F
	.DB  0x6E,0x0,0x2A,0x31,0x6F,0x6E,0x0,0x53
	.DB  0x45,0x54,0x20,0x4E,0x4F,0x44,0x45,0x0
	.DB  0x40,0x0,0x4E,0x4F,0x44,0x45,0x20,0x0
	.DB  0x4F,0x6E,0x2F,0x4F,0x66,0x66,0x0,0x53
	.DB  0x65,0x74,0x20,0x48,0x6F,0x75,0x72,0x0
	.DB  0x53,0x65,0x74,0x20,0x57,0x65,0x65,0x6B
	.DB  0x20,0x44,0x61,0x79,0x0,0x53,0x74,0x61
	.DB  0x74,0x75,0x73,0x0,0x48,0x4F,0x55,0x52
	.DB  0x0,0x57,0x45,0x45,0x4B,0x20,0x44,0x41
	.DB  0x59,0x0,0x4D,0x4F,0x4E,0x54,0x48,0x0
	.DB  0x59,0x45,0x41,0x52,0x0,0x4D,0x49,0x4E
	.DB  0x55,0x54,0x45,0x0,0x53,0x45,0x43,0x4F
	.DB  0x4E,0x44,0x0,0x53,0x45,0x54,0x20,0x54
	.DB  0x49,0x4D,0x45,0x0,0x53,0x65,0x74,0x20
	.DB  0x44,0x61,0x74,0x65,0x0,0x53,0x45,0x54
	.DB  0x20,0x44,0x41,0x54,0x45,0x0,0x57,0x65
	.DB  0x65,0x6B,0x20,0x64,0x61,0x79,0x0,0x4D
	.DB  0x6F,0x6E,0x74,0x68,0x0,0x59,0x65,0x61
	.DB  0x72,0x0,0x4D,0x69,0x6E,0x75,0x74,0x65
	.DB  0x0,0x53,0x65,0x63,0x6F,0x6E,0x64,0x0
	.DB  0x74,0x65,0x73,0x74,0x0
_0x20C0060:
	.DB  0x1
_0x20C0000:
	.DB  0x2D,0x4E,0x41,0x4E,0x0,0x49,0x4E,0x46
	.DB  0x0

__GLOBAL_INI_TBL:
	.DW  0x01
	.DW  0x02
	.DW  __REG_BIT_VARS*2

	.DW  0x0A
	.DW  0x04
	.DW  __REG_VARS*2

	.DW  0x10
	.DW  _name_week_day
	.DW  _0x3*2

	.DW  0x40
	.DW  _name_day
	.DW  _0x4*2

	.DW  0x1A
	.DW  _name_month
	.DW  _0x5*2

	.DW  0x20
	.DW  _name_year
	.DW  _0x6*2

	.DW  0x78
	.DW  _name_second
	.DW  _0x7*2

	.DW  0x78
	.DW  _name_minute
	.DW  _0x8*2

	.DW  0x30
	.DW  _name_hour
	.DW  _0x9*2

	.DW  0x0E
	.DW  _name_relay
	.DW  _0xA*2

	.DW  0x01
	.DW  _year
	.DW  _0xB*2

	.DW  0x09
	.DW  _0x4C
	.DW  _0x0*2+345

	.DW  0x05
	.DW  _0x4C+9
	.DW  _0x0*2+354

	.DW  0x02
	.DW  _0x4C+14
	.DW  _0x0*2+45

	.DW  0x02
	.DW  _0x4C+16
	.DW  _0x0*2+60

	.DW  0x02
	.DW  _0x52
	.DW  _0x0*2+359

	.DW  0x02
	.DW  _0x52+2
	.DW  _0x0*2+359

	.DW  0x02
	.DW  _0x57
	.DW  _0x0*2+361

	.DW  0x02
	.DW  _0x57+2
	.DW  _0x0*2+363

	.DW  0x05
	.DW  _0x68
	.DW  _0x0*2+365

	.DW  0x09
	.DW  _0x68+5
	.DW  _0x0*2+370

	.DW  0x09
	.DW  _0x68+14
	.DW  _0x0*2+379

	.DW  0x09
	.DW  _0x68+23
	.DW  _0x0*2+388

	.DW  0x09
	.DW  _0x68+32
	.DW  _0x0*2+397

	.DW  0x0D
	.DW  _0x7C
	.DW  _0x0*2+406

	.DW  0x0C
	.DW  _phone_number
	.DW  _0x97*2

	.DW  0x5A
	.DW  _ahi
	.DW  _0x99*2

	.DW  0x02
	.DW  _p4
	.DW  _0x9A*2

	.DW  0x02
	.DW  _p3
	.DW  _0x9B*2

	.DW  0x02
	.DW  _p2
	.DW  _0x9C*2

	.DW  0x02
	.DW  _p1
	.DW  _0x9D*2

	.DW  0x05
	.DW  _0xA2
	.DW  _0x0*2+419

	.DW  0x03
	.DW  _0xBC
	.DW  _0x0*2+424

	.DW  0x0F
	.DW  _0xCB
	.DW  _0x0*2+427

	.DW  0x20
	.DW  _0xCB+15
	.DW  _0x0*2+442

	.DW  0x0F
	.DW  _0xCB+47
	.DW  _0x0*2+474

	.DW  0x0F
	.DW  _0xCB+62
	.DW  _0x0*2+489

	.DW  0x0F
	.DW  _0xCB+77
	.DW  _0x0*2+504

	.DW  0x0E
	.DW  _0xCB+92
	.DW  _0x0*2+519

	.DW  0x0E
	.DW  _0xCB+106
	.DW  _0x0*2+533

	.DW  0x0C
	.DW  _0xCC
	.DW  _0x0*2+547

	.DW  0x07
	.DW  _0xCC+12
	.DW  _0x0*2+559

	.DW  0x0C
	.DW  _0xCC+19
	.DW  _0x0*2+566

	.DW  0x14
	.DW  _0xCC+31
	.DW  _0x0*2+578

	.DW  0x0A
	.DW  _0xCC+51
	.DW  _0x0*2+598

	.DW  0x0C
	.DW  _0xCC+61
	.DW  _0x0*2+608

	.DW  0x0D
	.DW  _0xCD
	.DW  _0x0*2+620

	.DW  0x0C
	.DW  _0xCD+13
	.DW  _0x0*2+633

	.DW  0x0C
	.DW  _0xCD+25
	.DW  _0x0*2+608

	.DW  0x10
	.DW  _0xDA
	.DW  _0x0*2+645

	.DW  0x0C
	.DW  _0xDA+16
	.DW  _0x0*2+661

	.DW  0x03
	.DW  _0xDA+28
	.DW  _0x0*2+424

	.DW  0x09
	.DW  _0xDA+31
	.DW  _0x0*2+673

	.DW  0x03
	.DW  _0xDA+40
	.DW  _0x0*2+670

	.DW  0x03
	.DW  _0xDA+43
	.DW  _0x0*2+682

	.DW  0x0A
	.DW  _0xDA+46
	.DW  _0x0*2+685

	.DW  0x03
	.DW  _0xE2
	.DW  _0x0*2+695

	.DW  0x04
	.DW  _0xE2+3
	.DW  _0x0*2+698

	.DW  0x05
	.DW  _0xE2+7
	.DW  _0x0*2+702

	.DW  0x04
	.DW  _0xE2+12
	.DW  _0x0*2+707

	.DW  0x03
	.DW  _0xE2+16
	.DW  _0x0*2+695

	.DW  0x04
	.DW  _0xE2+19
	.DW  _0x0*2+698

	.DW  0x05
	.DW  _0xE2+23
	.DW  _0x0*2+711

	.DW  0x04
	.DW  _0xE2+28
	.DW  _0x0*2+716

	.DW  0x05
	.DW  _0xE2+32
	.DW  _0x0*2+720

	.DW  0x05
	.DW  _0xE2+37
	.DW  _0x0*2+725

	.DW  0x04
	.DW  _0xE2+42
	.DW  _0x0*2+716

	.DW  0x05
	.DW  _0xE2+46
	.DW  _0x0*2+720

	.DW  0x05
	.DW  _0xE2+51
	.DW  _0x0*2+730

	.DW  0x04
	.DW  _0xE2+56
	.DW  _0x0*2+716

	.DW  0x05
	.DW  _0xE2+60
	.DW  _0x0*2+720

	.DW  0x05
	.DW  _0xE2+65
	.DW  _0x0*2+735

	.DW  0x04
	.DW  _0xE2+70
	.DW  _0x0*2+716

	.DW  0x05
	.DW  _0xE2+74
	.DW  _0x0*2+720

	.DW  0x0F
	.DW  _0x115
	.DW  _0x0*2+740

	.DW  0x25
	.DW  _0x115+15
	.DW  _0x0*2+755

	.DW  0x0B
	.DW  _0x115+52
	.DW  _0x0*2+792

	.DW  0x0C
	.DW  _0x115+63
	.DW  _0x0*2+803

	.DW  0x03
	.DW  _0x115+75
	.DW  _0x0*2+682

	.DW  0x38
	.DW  _0x115+78
	.DW  _0x0*2+815

	.DW  0x1C
	.DW  _0x115+134
	.DW  _0x0*2+871

	.DW  0x16
	.DW  _0x115+162
	.DW  _0x0*2+899

	.DW  0x03
	.DW  _0x115+184
	.DW  _0x0*2+424

	.DW  0x03
	.DW  _0x115+187
	.DW  _0x0*2+921

	.DW  0x0B
	.DW  _0x11A
	.DW  _0x0*2+924

	.DW  0x25
	.DW  _0x11A+11
	.DW  _0x0*2+755

	.DW  0x0B
	.DW  _0x11A+48
	.DW  _0x0*2+792

	.DW  0x0C
	.DW  _0x11A+59
	.DW  _0x0*2+803

	.DW  0x03
	.DW  _0x11A+71
	.DW  _0x0*2+682

	.DW  0x3D
	.DW  _0x11A+74
	.DW  _0x0*2+935

	.DW  0x1C
	.DW  _0x11A+135
	.DW  _0x0*2+871

	.DW  0x16
	.DW  _0x11A+163
	.DW  _0x0*2+899

	.DW  0x03
	.DW  _0x11A+185
	.DW  _0x0*2+424

	.DW  0x05
	.DW  _0x11A+188
	.DW  _0x0*2+996

	.DW  0x13
	.DW  _0x11F
	.DW  _0x0*2+1001

	.DW  0x11
	.DW  _0x120
	.DW  _0x0*2+1020

	.DW  0x0B
	.DW  _0x120+17
	.DW  _0x0*2+1037

	.DW  0x06
	.DW  _0x120+28
	.DW  _0x0*2+1048

	.DW  0x03
	.DW  _0x120+34
	.DW  _0x0*2+670

	.DW  0x13
	.DW  _0x124
	.DW  _0x0*2+1054

	.DW  0x13
	.DW  _0x12D
	.DW  _0x0*2+1054

	.DW  0x14
	.DW  _0x138
	.DW  _0x0*2+1073

	.DW  0x0B
	.DW  _0x138+20
	.DW  _0x0*2+1037

	.DW  0x06
	.DW  _0x138+31
	.DW  _0x0*2+1093

	.DW  0x03
	.DW  _0x138+37
	.DW  _0x0*2+670

	.DW  0x05
	.DW  _0x139
	.DW  _0x0*2+1099

	.DW  0x05
	.DW  _0x139+5
	.DW  _0x0*2+1104

	.DW  0x05
	.DW  _0x139+10
	.DW  _0x0*2+1109

	.DW  0x05
	.DW  _0x139+15
	.DW  _0x0*2+1114

	.DW  0x09
	.DW  _0x144
	.DW  _0x0*2+1119

	.DW  0x02
	.DW  _0x144+9
	.DW  _0x0*2+1128

	.DW  0x06
	.DW  _0x165
	.DW  _0x0*2+1130

	.DW  0x07
	.DW  _0x165+6
	.DW  _0x0*2+1136

	.DW  0x09
	.DW  _0x165+13
	.DW  _0x0*2+1143

	.DW  0x0D
	.DW  _0x165+22
	.DW  _0x0*2+1152

	.DW  0x07
	.DW  _0x165+35
	.DW  _0x0*2+1165

	.DW  0x05
	.DW  _0x195
	.DW  _0x0*2+1172

	.DW  0x02
	.DW  _0x195+5
	.DW  _0x0*2+1128

	.DW  0x02
	.DW  _0x195+7
	.DW  _0x0*2+1128

	.DW  0x09
	.DW  _0x1AA
	.DW  _0x0*2+1177

	.DW  0x02
	.DW  _0x1AA+9
	.DW  _0x0*2+1128

	.DW  0x02
	.DW  _0x1AA+11
	.DW  _0x0*2+1128

	.DW  0x09
	.DW  _0x1BF
	.DW  _0x0*2+1177

	.DW  0x02
	.DW  _0x1BF+9
	.DW  _0x0*2+1128

	.DW  0x02
	.DW  _0x1BF+11
	.DW  _0x0*2+1128

	.DW  0x04
	.DW  _0x1D4
	.DW  _0x0*2+1182

	.DW  0x02
	.DW  _0x1D4+4
	.DW  _0x0*2+1128

	.DW  0x02
	.DW  _0x1D4+6
	.DW  _0x0*2+1128

	.DW  0x06
	.DW  _0x1E9
	.DW  _0x0*2+1186

	.DW  0x02
	.DW  _0x1E9+6
	.DW  _0x0*2+1128

	.DW  0x02
	.DW  _0x1E9+8
	.DW  _0x0*2+1128

	.DW  0x05
	.DW  _0x1FE
	.DW  _0x0*2+1192

	.DW  0x02
	.DW  _0x1FE+5
	.DW  _0x0*2+1128

	.DW  0x02
	.DW  _0x1FE+7
	.DW  _0x0*2+1128

	.DW  0x05
	.DW  _0x213
	.DW  _0x0*2+1172

	.DW  0x02
	.DW  _0x213+5
	.DW  _0x0*2+1128

	.DW  0x02
	.DW  _0x213+7
	.DW  _0x0*2+1128

	.DW  0x07
	.DW  _0x228
	.DW  _0x0*2+1197

	.DW  0x02
	.DW  _0x228+7
	.DW  _0x0*2+1128

	.DW  0x02
	.DW  _0x228+9
	.DW  _0x0*2+1128

	.DW  0x07
	.DW  _0x23D
	.DW  _0x0*2+1204

	.DW  0x02
	.DW  _0x23D+7
	.DW  _0x0*2+1128

	.DW  0x02
	.DW  _0x23D+9
	.DW  _0x0*2+1128

	.DW  0x09
	.DW  _0x252
	.DW  _0x0*2+1211

	.DW  0x09
	.DW  _0x252+9
	.DW  _0x0*2+1220

	.DW  0x09
	.DW  _0x252+18
	.DW  _0x0*2+370

	.DW  0x09
	.DW  _0x266
	.DW  _0x0*2+1229

	.DW  0x09
	.DW  _0x266+9
	.DW  _0x0*2+1238

	.DW  0x04
	.DW  _0x266+18
	.DW  _0x0*2+1161

	.DW  0x06
	.DW  _0x266+22
	.DW  _0x0*2+1247

	.DW  0x05
	.DW  _0x266+28
	.DW  _0x0*2+1253

	.DW  0x09
	.DW  _0x27A
	.DW  _0x0*2+1211

	.DW  0x05
	.DW  _0x27A+9
	.DW  _0x0*2+1147

	.DW  0x07
	.DW  _0x27A+14
	.DW  _0x0*2+1258

	.DW  0x07
	.DW  _0x27A+21
	.DW  _0x0*2+1265

	.DW  0x05
	.DW  _0x2D9
	.DW  _0x0*2+1272

	.DW  0x01
	.DW  __seed_G106
	.DW  _0x20C0060*2

_0xFFFFFFFF:
	.DW  0

#define __GLOBAL_INI_TBL_PRESENT 1

__RESET:
	CLI
	CLR  R30
	OUT  EECR,R30

;INTERRUPT VECTORS ARE PLACED
;AT THE START OF FLASH
	LDI  R31,1
	OUT  MCUCR,R31
	OUT  MCUCR,R30
	STS  XMCRB,R30

;CLEAR R2-R14
	LDI  R24,(14-2)+1
	LDI  R26,2
	CLR  R27
__CLEAR_REG:
	ST   X+,R30
	DEC  R24
	BRNE __CLEAR_REG

;CLEAR SRAM
	LDI  R24,LOW(__CLEAR_SRAM_SIZE)
	LDI  R25,HIGH(__CLEAR_SRAM_SIZE)
	LDI  R26,LOW(__SRAM_START)
	LDI  R27,HIGH(__SRAM_START)
__CLEAR_SRAM:
	ST   X+,R30
	SBIW R24,1
	BRNE __CLEAR_SRAM

;GLOBAL VARIABLES INITIALIZATION
	LDI  R30,LOW(__GLOBAL_INI_TBL*2)
	LDI  R31,HIGH(__GLOBAL_INI_TBL*2)
__GLOBAL_INI_NEXT:
	LPM  R24,Z+
	LPM  R25,Z+
	SBIW R24,0
	BREQ __GLOBAL_INI_END
	LPM  R26,Z+
	LPM  R27,Z+
	LPM  R0,Z+
	LPM  R1,Z+
	MOVW R22,R30
	MOVW R30,R0
__GLOBAL_INI_LOOP:
	LPM  R0,Z+
	ST   X+,R0
	SBIW R24,1
	BRNE __GLOBAL_INI_LOOP
	MOVW R30,R22
	RJMP __GLOBAL_INI_NEXT
__GLOBAL_INI_END:

	OUT  RAMPZ,R24

;HARDWARE STACK POINTER INITIALIZATION
	LDI  R30,LOW(__SRAM_END-__HEAP_SIZE)
	OUT  SPL,R30
	LDI  R30,HIGH(__SRAM_END-__HEAP_SIZE)
	OUT  SPH,R30

;DATA STACK POINTER INITIALIZATION
	LDI  R28,LOW(__SRAM_START+__DSTACK_SIZE)
	LDI  R29,HIGH(__SRAM_START+__DSTACK_SIZE)

	JMP  _main

	.ESEG
	.ORG 0

	.DSEG
	.ORG 0x500

	.CSEG
;#include <mega128.h>
	#ifndef __SLEEP_DEFINED__
	#define __SLEEP_DEFINED__
	.EQU __se_bit=0x20
	.EQU __sm_mask=0x1C
	.EQU __sm_powerdown=0x10
	.EQU __sm_powersave=0x18
	.EQU __sm_standby=0x14
	.EQU __sm_ext_standby=0x1C
	.EQU __sm_adc_noise_red=0x08
	.SET power_ctrl_reg=mcucr
	#endif
;#include <i2c.h>
;#include <ds1307.h>
;#include <glcd.h>
;#include <eeprom.h>
;#include <font5x7.h>
;#include <big_letter_10x14.c>
;/****************************************************************************
;Font created by the LCD Vision V1.05 font & image editor/converter
;(C) Copyright 2011-2013 Pavel Haiduc, HP InfoTech s.r.l.
;http://www.hpinfotech.com
;
;Font name: big_letter_10x14
;The font is proportional (has variable width).
;Font height: 14 pixels
;First character: 0x30
;Last character: 0x5A
;
;Exported font data size:
;1251 bytes for displays organized as horizontal rows of bytes
;905 bytes for displays organized as rows of vertical bytes.
;****************************************************************************/
;
;flash unsigned char big_letter_10x14[]=
;{
;0x00, /* Proportional font */
;0x0E, /* Font height */
;0x30, /* First character */
;0x2B, /* Number of characters in font */
;
;/* Character widths */
;0x0A, 0x0A, 0x0A, 0x0A, 0x0A, 0x0A, 0x0A, 0x0A,
;0x0A, 0x0A, 0x0A, 0x0A, 0x0A, 0x0A, 0x0A, 0x0A,
;0x09, 0x0A, 0x0A, 0x0A, 0x0A, 0x0A, 0x0A, 0x0A,
;0x0A, 0x0A, 0x0A, 0x0A, 0x0A, 0x0A, 0x0A, 0x0A,
;0x0A, 0x0A, 0x0A, 0x0A, 0x0A, 0x0A, 0x0A, 0x0A,
;0x0A, 0x0A, 0x0A,
;
;#ifndef _GLCD_DATA_BYTEY_
;/* Font data for displays organized as
;   horizontal rows of bytes */
;
;/* Code: 0x30, ASCII Character: '0' */
;0x78, 0x00, 0xFC, 0x00, 0x86, 0x01, 0x86, 0x01,
;0x86, 0x01, 0x86, 0x01, 0x86, 0x01, 0x86, 0x01,
;0x86, 0x01, 0x86, 0x01, 0x86, 0x01, 0x86, 0x01,
;0xFC, 0x00, 0x78, 0x00,
;
;/* Code: 0x31, ASCII Character: '1' */
;0x30, 0x00, 0x38, 0x00, 0x3C, 0x00, 0x36, 0x00,
;0x32, 0x00, 0x30, 0x00, 0x30, 0x00, 0x30, 0x00,
;0x30, 0x00, 0x30, 0x00, 0x30, 0x00, 0x30, 0x00,
;0xFE, 0x01, 0xFE, 0x01,
;
;/* Code: 0x32, ASCII Character: '2' */
;0x78, 0x00, 0xFC, 0x00, 0x86, 0x01, 0x86, 0x01,
;0x80, 0x01, 0x80, 0x01, 0xC0, 0x00, 0x60, 0x00,
;0x30, 0x00, 0x18, 0x00, 0x0C, 0x00, 0x06, 0x00,
;0xFE, 0x01, 0xFE, 0x01,
;
;/* Code: 0x33, ASCII Character: '3' */
;0x78, 0x00, 0xFC, 0x00, 0x86, 0x01, 0x86, 0x01,
;0x80, 0x01, 0x80, 0x01, 0xF8, 0x00, 0xF8, 0x00,
;0x80, 0x01, 0x80, 0x01, 0x86, 0x01, 0x86, 0x01,
;0xFC, 0x00, 0x78, 0x00,
;
;/* Code: 0x34, ASCII Character: '4' */
;0x80, 0x01, 0xC0, 0x01, 0xE0, 0x01, 0xB0, 0x01,
;0x98, 0x01, 0x8C, 0x01, 0x86, 0x01, 0xFE, 0x03,
;0xFE, 0x03, 0x80, 0x01, 0x80, 0x01, 0x80, 0x01,
;0x80, 0x01, 0x80, 0x01,
;
;/* Code: 0x35, ASCII Character: '5' */
;0xFE, 0x01, 0xFE, 0x01, 0x06, 0x00, 0x06, 0x00,
;0x06, 0x00, 0x7E, 0x00, 0xFE, 0x00, 0x80, 0x01,
;0x80, 0x01, 0x80, 0x01, 0x86, 0x01, 0x86, 0x01,
;0xFC, 0x00, 0x78, 0x00,
;
;/* Code: 0x36, ASCII Character: '6' */
;0x78, 0x00, 0xFC, 0x00, 0x86, 0x01, 0x86, 0x01,
;0x06, 0x00, 0x06, 0x00, 0x7E, 0x00, 0xFE, 0x00,
;0x86, 0x01, 0x86, 0x01, 0x86, 0x01, 0x86, 0x01,
;0xFC, 0x00, 0x78, 0x00,
;
;/* Code: 0x37, ASCII Character: '7' */
;0xFE, 0x01, 0xFE, 0x01, 0x80, 0x01, 0x80, 0x01,
;0xC0, 0x00, 0xC0, 0x00, 0x60, 0x00, 0x60, 0x00,
;0x60, 0x00, 0x70, 0x00, 0x30, 0x00, 0x30, 0x00,
;0x30, 0x00, 0x30, 0x00,
;
;/* Code: 0x38, ASCII Character: '8' */
;0x78, 0x00, 0xFC, 0x00, 0x86, 0x01, 0x86, 0x01,
;0x86, 0x01, 0x86, 0x01, 0xFC, 0x00, 0xFC, 0x00,
;0x86, 0x01, 0x86, 0x01, 0x86, 0x01, 0x86, 0x01,
;0xFC, 0x00, 0x78, 0x00,
;
;/* Code: 0x39, ASCII Character: '9' */
;0x78, 0x00, 0xFC, 0x00, 0x86, 0x01, 0x86, 0x01,
;0x86, 0x01, 0x86, 0x01, 0xFC, 0x01, 0xF8, 0x01,
;0x80, 0x01, 0x80, 0x01, 0x86, 0x01, 0x86, 0x01,
;0xFC, 0x00, 0x78, 0x00,
;
;/* Code: 0x3A, ASCII Character: ':' */
;0x00, 0x00, 0x00, 0x00, 0x30, 0x00, 0x78, 0x00,
;0x78, 0x00, 0x30, 0x00, 0x00, 0x00, 0x00, 0x00,
;0x00, 0x00, 0x30, 0x00, 0x78, 0x00, 0x78, 0x00,
;0x30, 0x00, 0x00, 0x00,
;
;/* Code: 0x3B, ASCII Character: ';' */
;0x00, 0x00, 0x00, 0x00, 0x00, 0x00, 0x00, 0x00,
;0x00, 0x00, 0x00, 0x00, 0x00, 0x00, 0x00, 0x00,
;0x00, 0x00, 0x00, 0x00, 0x00, 0x00, 0x00, 0x00,
;0x00, 0x00, 0x00, 0x00,
;
;/* Code: 0x3C, ASCII Character: '<' */
;0x00, 0x00, 0x00, 0x00, 0x00, 0x00, 0x00, 0x00,
;0x00, 0x00, 0x00, 0x00, 0x00, 0x00, 0x00, 0x00,
;0x00, 0x00, 0x00, 0x00, 0x00, 0x00, 0x00, 0x00,
;0x00, 0x00, 0x00, 0x00,
;
;/* Code: 0x3D, ASCII Character: '=' */
;0x00, 0x00, 0x00, 0x00, 0x00, 0x00, 0x00, 0x00,
;0x00, 0x00, 0x00, 0x00, 0x00, 0x00, 0x00, 0x00,
;0x00, 0x00, 0x00, 0x00, 0x00, 0x00, 0x00, 0x00,
;0x00, 0x00, 0x00, 0x00,
;
;/* Code: 0x3E, ASCII Character: '>' */
;0x00, 0x00, 0x00, 0x00, 0x00, 0x00, 0x00, 0x00,
;0x00, 0x00, 0x00, 0x00, 0x00, 0x00, 0x00, 0x00,
;0x00, 0x00, 0x00, 0x00, 0x00, 0x00, 0x00, 0x00,
;0x00, 0x00, 0x00, 0x00,
;
;/* Code: 0x3F, ASCII Character: '?' */
;0x00, 0x00, 0x00, 0x00, 0x00, 0x00, 0x00, 0x00,
;0x00, 0x00, 0x00, 0x00, 0x00, 0x00, 0x00, 0x00,
;0x00, 0x00, 0x00, 0x00, 0x00, 0x00, 0x00, 0x00,
;0x00, 0x00, 0x00, 0x00,
;
;/* Code: 0x40, ASCII Character: '@' */
;0x00, 0x00, 0x00, 0x00, 0x00, 0x00, 0x00, 0x00,
;0x00, 0x00, 0xFF, 0x01, 0xFE, 0x00, 0x7C, 0x00,
;0x38, 0x00, 0x10, 0x00, 0x00, 0x00, 0x00, 0x00,
;0x00, 0x00, 0x00, 0x00,
;
;/* Code: 0x41, ASCII Character: 'A' */
;0xFC, 0x00, 0xFE, 0x01, 0x03, 0x03, 0x03, 0x03,
;0x03, 0x03, 0x03, 0x03, 0x03, 0x03, 0xFF, 0x03,
;0xFF, 0x03, 0x03, 0x03, 0x03, 0x03, 0x03, 0x03,
;0x03, 0x03, 0x03, 0x03,
;
;/* Code: 0x42, ASCII Character: 'B' */
;0xFF, 0x00, 0xFF, 0x01, 0x03, 0x03, 0x03, 0x03,
;0x03, 0x03, 0x03, 0x03, 0xFF, 0x01, 0xFF, 0x01,
;0x03, 0x03, 0x03, 0x03, 0x03, 0x03, 0x03, 0x03,
;0xFF, 0x01, 0xFF, 0x00,
;
;/* Code: 0x43, ASCII Character: 'C' */
;0xF8, 0x00, 0xFC, 0x01, 0x06, 0x03, 0x03, 0x03,
;0x03, 0x00, 0x03, 0x00, 0x03, 0x00, 0x03, 0x00,
;0x03, 0x00, 0x03, 0x00, 0x03, 0x03, 0x06, 0x03,
;0xFC, 0x01, 0xF8, 0x00,
;
;/* Code: 0x44, ASCII Character: 'D' */
;0x7F, 0x00, 0xFF, 0x00, 0x83, 0x01, 0x03, 0x03,
;0x03, 0x03, 0x03, 0x03, 0x03, 0x03, 0x03, 0x03,
;0x03, 0x03, 0x03, 0x03, 0x03, 0x03, 0x83, 0x01,
;0xFF, 0x00, 0x7F, 0x00,
;
;/* Code: 0x45, ASCII Character: 'E' */
;0xFF, 0x03, 0xFF, 0x03, 0x03, 0x00, 0x03, 0x00,
;0x03, 0x00, 0x03, 0x00, 0xFF, 0x01, 0xFF, 0x01,
;0x03, 0x00, 0x03, 0x00, 0x03, 0x00, 0x03, 0x00,
;0xFF, 0x03, 0xFF, 0x03,
;
;/* Code: 0x46, ASCII Character: 'F' */
;0xFF, 0x03, 0xFF, 0x03, 0x03, 0x00, 0x03, 0x00,
;0x03, 0x00, 0x03, 0x00, 0x7F, 0x00, 0x7F, 0x00,
;0x03, 0x00, 0x03, 0x00, 0x03, 0x00, 0x03, 0x00,
;0x03, 0x00, 0x03, 0x00,
;
;/* Code: 0x47, ASCII Character: 'G' */
;0x78, 0x00, 0xFC, 0x00, 0x86, 0x01, 0x83, 0x01,
;0x03, 0x00, 0x03, 0x00, 0x03, 0x00, 0xC3, 0x03,
;0xC3, 0x03, 0x83, 0x01, 0x83, 0x01, 0x86, 0x01,
;0xFC, 0x01, 0xF8, 0x00,
;
;/* Code: 0x48, ASCII Character: 'H' */
;0x03, 0x03, 0x03, 0x03, 0x03, 0x03, 0x03, 0x03,
;0x03, 0x03, 0x03, 0x03, 0xFF, 0x03, 0xFF, 0x03,
;0x03, 0x03, 0x03, 0x03, 0x03, 0x03, 0x03, 0x03,
;0x03, 0x03, 0x03, 0x03,
;
;/* Code: 0x49, ASCII Character: 'I' */
;0xFC, 0x00, 0xFC, 0x00, 0x30, 0x00, 0x30, 0x00,
;0x30, 0x00, 0x30, 0x00, 0x30, 0x00, 0x30, 0x00,
;0x30, 0x00, 0x30, 0x00, 0x30, 0x00, 0x30, 0x00,
;0xFC, 0x00, 0xFC, 0x00,
;
;/* Code: 0x4A, ASCII Character: 'J' */
;0xF8, 0x01, 0xF8, 0x01, 0x60, 0x00, 0x60, 0x00,
;0x60, 0x00, 0x60, 0x00, 0x60, 0x00, 0x60, 0x00,
;0x60, 0x00, 0x60, 0x00, 0x63, 0x00, 0x63, 0x00,
;0x3E, 0x00, 0x1C, 0x00,
;
;/* Code: 0x4B, ASCII Character: 'K' */
;0x03, 0x03, 0x83, 0x01, 0xC3, 0x00, 0x63, 0x00,
;0x33, 0x00, 0x1B, 0x00, 0x0F, 0x00, 0x0F, 0x00,
;0x1B, 0x00, 0x33, 0x00, 0x63, 0x00, 0xC3, 0x00,
;0x83, 0x01, 0x03, 0x03,
;
;/* Code: 0x4C, ASCII Character: 'L' */
;0x03, 0x00, 0x03, 0x00, 0x03, 0x00, 0x03, 0x00,
;0x03, 0x00, 0x03, 0x00, 0x03, 0x00, 0x03, 0x00,
;0x03, 0x00, 0x03, 0x00, 0x03, 0x00, 0x03, 0x00,
;0xFF, 0x03, 0xFF, 0x03,
;
;/* Code: 0x4D, ASCII Character: 'M' */
;0x03, 0x03, 0x03, 0x03, 0x87, 0x03, 0x87, 0x03,
;0xCF, 0x03, 0x4B, 0x03, 0x7B, 0x03, 0x33, 0x03,
;0x33, 0x03, 0x03, 0x03, 0x03, 0x03, 0x03, 0x03,
;0x03, 0x03, 0x03, 0x03,
;
;/* Code: 0x4E, ASCII Character: 'N' */
;0x03, 0x03, 0x07, 0x03, 0x07, 0x03, 0x0F, 0x03,
;0x0B, 0x03, 0x1B, 0x03, 0x13, 0x03, 0x33, 0x03,
;0x23, 0x03, 0x63, 0x03, 0x43, 0x03, 0xC3, 0x03,
;0x83, 0x03, 0x03, 0x03,
;
;/* Code: 0x4F, ASCII Character: 'O' */
;0x78, 0x00, 0xFC, 0x00, 0x86, 0x01, 0x03, 0x03,
;0x03, 0x03, 0x03, 0x03, 0x03, 0x03, 0x03, 0x03,
;0x03, 0x03, 0x03, 0x03, 0x03, 0x03, 0x86, 0x01,
;0xFC, 0x00, 0x78, 0x00,
;
;/* Code: 0x50, ASCII Character: 'P' */
;0xFF, 0x00, 0xFF, 0x01, 0x83, 0x03, 0x03, 0x03,
;0x03, 0x03, 0x83, 0x03, 0xFF, 0x01, 0xFF, 0x00,
;0x03, 0x00, 0x03, 0x00, 0x03, 0x00, 0x03, 0x00,
;0x03, 0x00, 0x03, 0x00,
;
;/* Code: 0x51, ASCII Character: 'Q' */
;0x78, 0x00, 0xFC, 0x00, 0x86, 0x01, 0x03, 0x03,
;0x03, 0x03, 0x03, 0x03, 0x03, 0x03, 0x03, 0x03,
;0x03, 0x03, 0x03, 0x03, 0x63, 0x03, 0xC6, 0x01,
;0xFC, 0x01, 0x78, 0x03,
;
;/* Code: 0x52, ASCII Character: 'R' */
;0x7F, 0x00, 0xFF, 0x00, 0xC3, 0x01, 0x83, 0x01,
;0x83, 0x01, 0xC3, 0x01, 0xFF, 0x00, 0x7F, 0x00,
;0x1F, 0x00, 0x3B, 0x00, 0x73, 0x00, 0xE3, 0x00,
;0xC3, 0x01, 0x83, 0x03,
;
;/* Code: 0x53, ASCII Character: 'S' */
;0xFC, 0x00, 0xFE, 0x01, 0x03, 0x03, 0x03, 0x03,
;0x03, 0x00, 0x03, 0x00, 0xFE, 0x00, 0xFC, 0x01,
;0x00, 0x03, 0x00, 0x03, 0x03, 0x03, 0x03, 0x03,
;0xFE, 0x01, 0xFC, 0x00,
;
;/* Code: 0x54, ASCII Character: 'T' */
;0xFF, 0x03, 0xFF, 0x03, 0x30, 0x00, 0x30, 0x00,
;0x30, 0x00, 0x30, 0x00, 0x30, 0x00, 0x30, 0x00,
;0x30, 0x00, 0x30, 0x00, 0x30, 0x00, 0x30, 0x00,
;0x30, 0x00, 0x30, 0x00,
;
;/* Code: 0x55, ASCII Character: 'U' */
;0x03, 0x03, 0x03, 0x03, 0x03, 0x03, 0x03, 0x03,
;0x03, 0x03, 0x03, 0x03, 0x03, 0x03, 0x03, 0x03,
;0x03, 0x03, 0x03, 0x03, 0x03, 0x03, 0x03, 0x03,
;0xFE, 0x01, 0xFC, 0x00,
;
;/* Code: 0x56, ASCII Character: 'V' */
;0x03, 0x03, 0x03, 0x03, 0x03, 0x03, 0x03, 0x03,
;0x03, 0x03, 0x03, 0x03, 0x03, 0x03, 0x03, 0x03,
;0x03, 0x03, 0x03, 0x03, 0x86, 0x01, 0xCC, 0x00,
;0x78, 0x00, 0x30, 0x00,
;
;/* Code: 0x57, ASCII Character: 'W' */
;0x03, 0x03, 0x03, 0x03, 0x03, 0x03, 0x03, 0x03,
;0x03, 0x03, 0x33, 0x03, 0x33, 0x03, 0x7B, 0x03,
;0x4B, 0x03, 0xCF, 0x03, 0x87, 0x03, 0x87, 0x03,
;0x03, 0x03, 0x03, 0x03,
;
;/* Code: 0x58, ASCII Character: 'X' */
;0x03, 0x03, 0x03, 0x03, 0x03, 0x03, 0x03, 0x03,
;0x86, 0x01, 0xCC, 0x00, 0x78, 0x00, 0xFC, 0x00,
;0xCE, 0x01, 0x87, 0x03, 0x03, 0x03, 0x03, 0x03,
;0x03, 0x03, 0x03, 0x03,
;
;/* Code: 0x59, ASCII Character: 'Y' */
;0x03, 0x03, 0x03, 0x03, 0x03, 0x03, 0x03, 0x03,
;0x03, 0x03, 0x86, 0x01, 0xCC, 0x00, 0x78, 0x00,
;0x30, 0x00, 0x30, 0x00, 0x30, 0x00, 0x30, 0x00,
;0x30, 0x00, 0x30, 0x00,
;
;/* Code: 0x5A, ASCII Character: 'Z' */
;0xFF, 0x03, 0xFF, 0x03, 0x00, 0x03, 0x80, 0x01,
;0xC0, 0x00, 0x60, 0x00, 0x30, 0x00, 0x18, 0x00,
;0x0C, 0x00, 0x06, 0x00, 0x03, 0x00, 0x03, 0x00,
;0xFF, 0x03, 0xFF, 0x03,
;
;#else
;/* Font data for displays organized as
;   rows of vertical bytes */
;
;/* Code: 0x30, ASCII Character: '0' */
;0x00, 0xFC, 0xFE, 0x03, 0x03, 0x03, 0x03, 0xFE,
;0xFC, 0x00, 0x00, 0x0F, 0x1F, 0x30, 0x30, 0x30,
;0x30, 0x1F, 0x0F, 0x00,
;
;/* Code: 0x31, ASCII Character: '1' */
;0x00, 0x18, 0x0C, 0x06, 0xFF, 0xFF, 0x00, 0x00,
;0x00, 0x00, 0x00, 0x30, 0x30, 0x30, 0x3F, 0x3F,
;0x30, 0x30, 0x30, 0x00,
;
;/* Code: 0x32, ASCII Character: '2' */
;0x00, 0x0C, 0x0E, 0x03, 0x03, 0x83, 0xC3, 0x7E,
;0x3C, 0x00, 0x00, 0x38, 0x3C, 0x36, 0x33, 0x31,
;0x30, 0x30, 0x30, 0x00,
;
;/* Code: 0x33, ASCII Character: '3' */
;0x00, 0x0C, 0x0E, 0xC3, 0xC3, 0xC3, 0xC3, 0xFE,
;0x3C, 0x00, 0x00, 0x0C, 0x1C, 0x30, 0x30, 0x30,
;0x30, 0x1F, 0x0F, 0x00,
;
;/* Code: 0x34, ASCII Character: '4' */
;0x00, 0xC0, 0xE0, 0xB0, 0x98, 0x8C, 0x86, 0xFF,
;0xFF, 0x80, 0x00, 0x01, 0x01, 0x01, 0x01, 0x01,
;0x01, 0x3F, 0x3F, 0x01,
;
;/* Code: 0x35, ASCII Character: '5' */
;0x00, 0x7F, 0x7F, 0x63, 0x63, 0x63, 0x63, 0xC3,
;0x83, 0x00, 0x00, 0x0C, 0x1C, 0x30, 0x30, 0x30,
;0x30, 0x1F, 0x0F, 0x00,
;
;/* Code: 0x36, ASCII Character: '6' */
;0x00, 0xFC, 0xFE, 0xC3, 0xC3, 0xC3, 0xC3, 0x8E,
;0x0C, 0x00, 0x00, 0x0F, 0x1F, 0x30, 0x30, 0x30,
;0x30, 0x1F, 0x0F, 0x00,
;
;/* Code: 0x37, ASCII Character: '7' */
;0x00, 0x03, 0x03, 0x03, 0x03, 0xC3, 0xF3, 0x3F,
;0x0F, 0x00, 0x00, 0x00, 0x00, 0x00, 0x3E, 0x3F,
;0x03, 0x00, 0x00, 0x00,
;
;/* Code: 0x38, ASCII Character: '8' */
;0x00, 0x3C, 0xFE, 0xC3, 0xC3, 0xC3, 0xC3, 0xFE,
;0x3C, 0x00, 0x00, 0x0F, 0x1F, 0x30, 0x30, 0x30,
;0x30, 0x1F, 0x0F, 0x00,
;
;/* Code: 0x39, ASCII Character: '9' */
;0x00, 0x3C, 0x7E, 0xC3, 0xC3, 0xC3, 0xC3, 0xFE,
;0xFC, 0x00, 0x00, 0x0C, 0x1C, 0x30, 0x30, 0x30,
;0x30, 0x1F, 0x0F, 0x00,
;
;/* Code: 0x3A, ASCII Character: ':' */
;0x00, 0x00, 0x00, 0x18, 0x3C, 0x3C, 0x18, 0x00,
;0x00, 0x00, 0x00, 0x00, 0x00, 0x0C, 0x1E, 0x1E,
;0x0C, 0x00, 0x00, 0x00,
;
;/* Code: 0x3B, ASCII Character: ';' */
;0x00, 0x00, 0x00, 0x00, 0x00, 0x00, 0x00, 0x00,
;0x00, 0x00, 0x00, 0x00, 0x00, 0x00, 0x00, 0x00,
;0x00, 0x00, 0x00, 0x00,
;
;/* Code: 0x3C, ASCII Character: '<' */
;0x00, 0x00, 0x00, 0x00, 0x00, 0x00, 0x00, 0x00,
;0x00, 0x00, 0x00, 0x00, 0x00, 0x00, 0x00, 0x00,
;0x00, 0x00, 0x00, 0x00,
;
;/* Code: 0x3D, ASCII Character: '=' */
;0x00, 0x00, 0x00, 0x00, 0x00, 0x00, 0x00, 0x00,
;0x00, 0x00, 0x00, 0x00, 0x00, 0x00, 0x00, 0x00,
;0x00, 0x00, 0x00, 0x00,
;
;/* Code: 0x3E, ASCII Character: '>' */
;0x00, 0x00, 0x00, 0x00, 0x00, 0x00, 0x00, 0x00,
;0x00, 0x00, 0x00, 0x00, 0x00, 0x00, 0x00, 0x00,
;0x00, 0x00, 0x00, 0x00,
;
;/* Code: 0x3F, ASCII Character: '?' */
;0x00, 0x00, 0x00, 0x00, 0x00, 0x00, 0x00, 0x00,
;0x00, 0x00, 0x00, 0x00, 0x00, 0x00, 0x00, 0x00,
;0x00, 0x00, 0x00, 0x00,
;
;/* Code: 0x40, ASCII Character: '@' */
;0x20, 0x60, 0xE0, 0xE0, 0xE0, 0xE0, 0xE0, 0x60,
;0x20, 0x00, 0x00, 0x00, 0x01, 0x03, 0x01, 0x00,
;0x00, 0x00,
;
;/* Code: 0x41, ASCII Character: 'A' */
;0xFC, 0xFE, 0x83, 0x83, 0x83, 0x83, 0x83, 0x83,
;0xFE, 0xFC, 0x3F, 0x3F, 0x01, 0x01, 0x01, 0x01,
;0x01, 0x01, 0x3F, 0x3F,
;
;/* Code: 0x42, ASCII Character: 'B' */
;0xFF, 0xFF, 0xC3, 0xC3, 0xC3, 0xC3, 0xC3, 0xC3,
;0xFE, 0x3C, 0x3F, 0x3F, 0x30, 0x30, 0x30, 0x30,
;0x30, 0x30, 0x1F, 0x0F,
;
;/* Code: 0x43, ASCII Character: 'C' */
;0xF8, 0xFC, 0x06, 0x03, 0x03, 0x03, 0x03, 0x03,
;0x0E, 0x0C, 0x07, 0x0F, 0x18, 0x30, 0x30, 0x30,
;0x30, 0x30, 0x1C, 0x0C,
;
;/* Code: 0x44, ASCII Character: 'D' */
;0xFF, 0xFF, 0x03, 0x03, 0x03, 0x03, 0x03, 0x06,
;0xFC, 0xF8, 0x3F, 0x3F, 0x30, 0x30, 0x30, 0x30,
;0x30, 0x18, 0x0F, 0x07,
;
;/* Code: 0x45, ASCII Character: 'E' */
;0xFF, 0xFF, 0xC3, 0xC3, 0xC3, 0xC3, 0xC3, 0xC3,
;0xC3, 0x03, 0x3F, 0x3F, 0x30, 0x30, 0x30, 0x30,
;0x30, 0x30, 0x30, 0x30,
;
;/* Code: 0x46, ASCII Character: 'F' */
;0xFF, 0xFF, 0xC3, 0xC3, 0xC3, 0xC3, 0xC3, 0x03,
;0x03, 0x03, 0x3F, 0x3F, 0x00, 0x00, 0x00, 0x00,
;0x00, 0x00, 0x00, 0x00,
;
;/* Code: 0x47, ASCII Character: 'G' */
;0xF8, 0xFC, 0x06, 0x03, 0x03, 0x03, 0x83, 0x8E,
;0x8C, 0x80, 0x07, 0x0F, 0x18, 0x30, 0x30, 0x30,
;0x31, 0x3F, 0x1F, 0x01,
;
;/* Code: 0x48, ASCII Character: 'H' */
;0xFF, 0xFF, 0xC0, 0xC0, 0xC0, 0xC0, 0xC0, 0xC0,
;0xFF, 0xFF, 0x3F, 0x3F, 0x00, 0x00, 0x00, 0x00,
;0x00, 0x00, 0x3F, 0x3F,
;
;/* Code: 0x49, ASCII Character: 'I' */
;0x00, 0x00, 0x03, 0x03, 0xFF, 0xFF, 0x03, 0x03,
;0x00, 0x00, 0x00, 0x00, 0x30, 0x30, 0x3F, 0x3F,
;0x30, 0x30, 0x00, 0x00,
;
;/* Code: 0x4A, ASCII Character: 'J' */
;0x00, 0x00, 0x00, 0x03, 0x03, 0xFF, 0xFF, 0x03,
;0x03, 0x00, 0x0C, 0x1C, 0x30, 0x30, 0x30, 0x1F,
;0x0F, 0x00, 0x00, 0x00,
;
;/* Code: 0x4B, ASCII Character: 'K' */
;0xFF, 0xFF, 0xC0, 0xE0, 0x30, 0x18, 0x0C, 0x06,
;0x03, 0x01, 0x3F, 0x3F, 0x00, 0x01, 0x03, 0x06,
;0x0C, 0x18, 0x30, 0x20,
;
;/* Code: 0x4C, ASCII Character: 'L' */
;0xFF, 0xFF, 0x00, 0x00, 0x00, 0x00, 0x00, 0x00,
;0x00, 0x00, 0x3F, 0x3F, 0x30, 0x30, 0x30, 0x30,
;0x30, 0x30, 0x30, 0x30,
;
;/* Code: 0x4D, ASCII Character: 'M' */
;0xFF, 0xFF, 0x1C, 0x70, 0xC0, 0xC0, 0x70, 0x1C,
;0xFF, 0xFF, 0x3F, 0x3F, 0x00, 0x00, 0x01, 0x01,
;0x00, 0x00, 0x3F, 0x3F,
;
;/* Code: 0x4E, ASCII Character: 'N' */
;0xFF, 0xFF, 0x0E, 0x38, 0xE0, 0x80, 0x00, 0x00,
;0xFF, 0xFF, 0x3F, 0x3F, 0x00, 0x00, 0x00, 0x03,
;0x0E, 0x18, 0x3F, 0x3F,
;
;/* Code: 0x4F, ASCII Character: 'O' */
;0xF8, 0xFC, 0x06, 0x03, 0x03, 0x03, 0x03, 0x06,
;0xFC, 0xF8, 0x07, 0x0F, 0x18, 0x30, 0x30, 0x30,
;0x30, 0x18, 0x0F, 0x07,
;
;/* Code: 0x50, ASCII Character: 'P' */
;0xFF, 0xFF, 0xC3, 0xC3, 0xC3, 0xC3, 0xC3, 0xE7,
;0x7E, 0x3C, 0x3F, 0x3F, 0x00, 0x00, 0x00, 0x00,
;0x00, 0x00, 0x00, 0x00,
;
;/* Code: 0x51, ASCII Character: 'Q' */
;0xF8, 0xFC, 0x06, 0x03, 0x03, 0x03, 0x03, 0x06,
;0xFC, 0xF8, 0x07, 0x0F, 0x18, 0x30, 0x30, 0x34,
;0x3C, 0x18, 0x3F, 0x27,
;
;/* Code: 0x52, ASCII Character: 'R' */
;0xFF, 0xFF, 0xC3, 0xC3, 0xC3, 0xC3, 0xE7, 0x7E,
;0x3C, 0x00, 0x3F, 0x3F, 0x01, 0x03, 0x07, 0x0E,
;0x1C, 0x38, 0x30, 0x20,
;
;/* Code: 0x53, ASCII Character: 'S' */
;0x3C, 0x7E, 0xC3, 0xC3, 0xC3, 0xC3, 0xC3, 0xC3,
;0x8E, 0x0C, 0x0C, 0x1C, 0x30, 0x30, 0x30, 0x30,
;0x30, 0x30, 0x1F, 0x0F,
;
;/* Code: 0x54, ASCII Character: 'T' */
;0x03, 0x03, 0x03, 0x03, 0xFF, 0xFF, 0x03, 0x03,
;0x03, 0x03, 0x00, 0x00, 0x00, 0x00, 0x3F, 0x3F,
;0x00, 0x00, 0x00, 0x00,
;
;/* Code: 0x55, ASCII Character: 'U' */
;0xFF, 0xFF, 0x00, 0x00, 0x00, 0x00, 0x00, 0x00,
;0xFF, 0xFF, 0x0F, 0x1F, 0x30, 0x30, 0x30, 0x30,
;0x30, 0x30, 0x1F, 0x0F,
;
;/* Code: 0x56, ASCII Character: 'V' */
;0xFF, 0xFF, 0x00, 0x00, 0x00, 0x00, 0x00, 0x00,
;0xFF, 0xFF, 0x03, 0x07, 0x0C, 0x18, 0x30, 0x30,
;0x18, 0x0C, 0x07, 0x03,
;
;/* Code: 0x57, ASCII Character: 'W' */
;0xFF, 0xFF, 0x00, 0x80, 0xE0, 0xE0, 0x80, 0x00,
;0xFF, 0xFF, 0x3F, 0x3F, 0x0E, 0x03, 0x00, 0x00,
;0x03, 0x0E, 0x3F, 0x3F,
;
;/* Code: 0x58, ASCII Character: 'X' */
;0x0F, 0x1F, 0xB0, 0xE0, 0xC0, 0xC0, 0xE0, 0xB0,
;0x1F, 0x0F, 0x3E, 0x3F, 0x03, 0x01, 0x00, 0x00,
;0x01, 0x03, 0x3F, 0x3E,
;
;/* Code: 0x59, ASCII Character: 'Y' */
;0x1F, 0x3F, 0x60, 0xC0, 0x80, 0x80, 0xC0, 0x60,
;0x3F, 0x1F, 0x00, 0x00, 0x00, 0x00, 0x3F, 0x3F,
;0x00, 0x00, 0x00, 0x00,
;
;/* Code: 0x5A, ASCII Character: 'Z' */
;0x03, 0x03, 0x03, 0x83, 0xC3, 0x63, 0x33, 0x1B,
;0x0F, 0x07, 0x3C, 0x3E, 0x33, 0x31, 0x30, 0x30,
;0x30, 0x30, 0x30, 0x30,
;
;#endif
;};
;
;#include <tiny_letter.c>
;/****************************************************************************
;Font created by the LCD Vision V1.05 font & image editor/converter
;(C) Copyright 2011-2013 Pavel Haiduc, HP InfoTech s.r.l.
;http://www.hpinfotech.com
;
;Font name: tiny_letter
;The font is proportional (has variable width).
;Font height: 5 pixels
;First character: 0x20
;Last character: 0x5A
;
;Exported font data size:
;358 bytes for displays organized as horizontal rows of bytes
;288 bytes for displays organized as rows of vertical bytes.
;****************************************************************************/
;
;flash unsigned char tiny_letter[]=
;{
;0x00, /* Proportional font */
;0x05, /* Font height */
;0x20, /* First character */
;0x3B, /* Number of characters in font */
;
;/* Character widths */
;0x01, 0x04, 0x03, 0x04, 0x04, 0x04, 0x04, 0x04,
;0x04, 0x04, 0x04, 0x04, 0x04, 0x04, 0x04, 0x04,
;0x04, 0x03, 0x04, 0x04, 0x04, 0x04, 0x04, 0x04,
;0x04, 0x04, 0x03, 0x04, 0x04, 0x04, 0x04, 0x04,
;0x04, 0x04, 0x04, 0x04, 0x04, 0x04, 0x04, 0x04,
;0x04, 0x01, 0x04, 0x04, 0x03, 0x05, 0x04, 0x04,
;0x04, 0x04, 0x04, 0x04, 0x03, 0x04, 0x04, 0x05,
;0x04, 0x03, 0x03,
;
;#ifndef _GLCD_DATA_BYTEY_
;/* Font data for displays organized as
;   horizontal rows of bytes */
;
;/* Code: 0x20, ASCII Character: ' ' */
;0x00, 0x00, 0x00, 0x00, 0x00,
;
;/* Code: 0x21, ASCII Character: '!' */
;0x00, 0x00, 0x00, 0x00, 0x00,
;
;/* Code: 0x22, ASCII Character: '"' */
;0x00, 0x00, 0x00, 0x00, 0x00,
;
;/* Code: 0x23, ASCII Character: '#' */
;0x00, 0x00, 0x00, 0x00, 0x00,
;
;/* Code: 0x24, ASCII Character: '$' */
;0x00, 0x00, 0x00, 0x00, 0x00,
;
;/* Code: 0x25, ASCII Character: '%' */
;0x00, 0x00, 0x00, 0x00, 0x00,
;
;/* Code: 0x26, ASCII Character: '&' */
;0x00, 0x00, 0x00, 0x00, 0x00,
;
;/* Code: 0x27, ASCII Character: ''' */
;0x00, 0x00, 0x00, 0x00, 0x00,
;
;/* Code: 0x28, ASCII Character: '(' */
;0x00, 0x00, 0x00, 0x00, 0x00,
;
;/* Code: 0x29, ASCII Character: ')' */
;0x00, 0x00, 0x00, 0x00, 0x00,
;
;/* Code: 0x2A, ASCII Character: '*' */
;0x00, 0x00, 0x00, 0x00, 0x00,
;
;/* Code: 0x2B, ASCII Character: '+' */
;0x00, 0x00, 0x00, 0x00, 0x00,
;
;/* Code: 0x2C, ASCII Character: ',' */
;0x00, 0x00, 0x00, 0x00, 0x00,
;
;/* Code: 0x2D, ASCII Character: '-' */
;0x00, 0x00, 0x00, 0x00, 0x00,
;
;/* Code: 0x2E, ASCII Character: '.' */
;0x00, 0x00, 0x00, 0x00, 0x00,
;
;/* Code: 0x2F, ASCII Character: '/' */
;0x04, 0x02, 0x02, 0x01, 0x01,
;
;/* Code: 0x30, ASCII Character: '0' */
;0x06, 0x09, 0x09, 0x09, 0x06,
;
;/* Code: 0x31, ASCII Character: '1' */
;0x02, 0x03, 0x02, 0x02, 0x07,
;
;/* Code: 0x32, ASCII Character: '2' */
;0x07, 0x08, 0x06, 0x01, 0x0F,
;
;/* Code: 0x33, ASCII Character: '3' */
;0x07, 0x08, 0x06, 0x08, 0x07,
;
;/* Code: 0x34, ASCII Character: '4' */
;0x04, 0x06, 0x05, 0x0F, 0x04,
;
;/* Code: 0x35, ASCII Character: '5' */
;0x0F, 0x01, 0x07, 0x08, 0x07,
;
;/* Code: 0x36, ASCII Character: '6' */
;0x06, 0x01, 0x07, 0x09, 0x06,
;
;/* Code: 0x37, ASCII Character: '7' */
;0x0F, 0x08, 0x04, 0x02, 0x02,
;
;/* Code: 0x38, ASCII Character: '8' */
;0x06, 0x09, 0x06, 0x09, 0x06,
;
;/* Code: 0x39, ASCII Character: '9' */
;0x06, 0x09, 0x0E, 0x08, 0x06,
;
;/* Code: 0x3A, ASCII Character: ':' */
;0x00, 0x02, 0x00, 0x02, 0x00,
;
;/* Code: 0x3B, ASCII Character: ';' */
;0x00, 0x04, 0x00, 0x04, 0x02,
;
;/* Code: 0x3C, ASCII Character: '<' */
;0x04, 0x02, 0x01, 0x02, 0x04,
;
;/* Code: 0x3D, ASCII Character: '=' */
;0x00, 0x0F, 0x00, 0x0F, 0x00,
;
;/* Code: 0x3E, ASCII Character: '>' */
;0x02, 0x04, 0x08, 0x04, 0x02,
;
;/* Code: 0x3F, ASCII Character: '?' */
;0x06, 0x08, 0x04, 0x00, 0x04,
;
;/* Code: 0x40, ASCII Character: '@' */
;0x00, 0x00, 0x00, 0x00, 0x00,
;
;/* Code: 0x41, ASCII Character: 'A' */
;0x06, 0x09, 0x0F, 0x09, 0x09,
;
;/* Code: 0x42, ASCII Character: 'B' */
;0x07, 0x09, 0x07, 0x09, 0x07,
;
;/* Code: 0x43, ASCII Character: 'C' */
;0x06, 0x09, 0x01, 0x09, 0x06,
;
;/* Code: 0x44, ASCII Character: 'D' */
;0x07, 0x09, 0x09, 0x09, 0x07,
;
;/* Code: 0x45, ASCII Character: 'E' */
;0x0F, 0x01, 0x07, 0x01, 0x0F,
;
;/* Code: 0x46, ASCII Character: 'F' */
;0x0F, 0x01, 0x07, 0x01, 0x01,
;
;/* Code: 0x47, ASCII Character: 'G' */
;0x06, 0x09, 0x01, 0x0D, 0x06,
;
;/* Code: 0x48, ASCII Character: 'H' */
;0x09, 0x09, 0x0F, 0x09, 0x09,
;
;/* Code: 0x49, ASCII Character: 'I' */
;0x01, 0x01, 0x01, 0x01, 0x01,
;
;/* Code: 0x4A, ASCII Character: 'J' */
;0x0E, 0x04, 0x04, 0x05, 0x02,
;
;/* Code: 0x4B, ASCII Character: 'K' */
;0x09, 0x05, 0x03, 0x05, 0x09,
;
;/* Code: 0x4C, ASCII Character: 'L' */
;0x01, 0x01, 0x01, 0x01, 0x07,
;
;/* Code: 0x4D, ASCII Character: 'M' */
;0x11, 0x1B, 0x15, 0x11, 0x11,
;
;/* Code: 0x4E, ASCII Character: 'N' */
;0x09, 0x0B, 0x0D, 0x09, 0x09,
;
;/* Code: 0x4F, ASCII Character: 'O' */
;0x06, 0x09, 0x09, 0x09, 0x06,
;
;/* Code: 0x50, ASCII Character: 'P' */
;0x07, 0x09, 0x07, 0x01, 0x01,
;
;/* Code: 0x51, ASCII Character: 'Q' */
;0x06, 0x09, 0x09, 0x0D, 0x0E,
;
;/* Code: 0x52, ASCII Character: 'R' */
;0x07, 0x09, 0x07, 0x05, 0x09,
;
;/* Code: 0x53, ASCII Character: 'S' */
;0x0E, 0x01, 0x06, 0x08, 0x07,
;
;/* Code: 0x54, ASCII Character: 'T' */
;0x07, 0x02, 0x02, 0x02, 0x02,
;
;/* Code: 0x55, ASCII Character: 'U' */
;0x09, 0x09, 0x09, 0x09, 0x06,
;
;/* Code: 0x56, ASCII Character: 'V' */
;0x09, 0x09, 0x09, 0x06, 0x06,
;
;/* Code: 0x57, ASCII Character: 'W' */
;0x11, 0x11, 0x15, 0x1B, 0x11,
;
;/* Code: 0x58, ASCII Character: 'X' */
;0x09, 0x09, 0x06, 0x09, 0x09,
;
;/* Code: 0x59, ASCII Character: 'Y' */
;0x05, 0x05, 0x02, 0x02, 0x02,
;
;/* Code: 0x5A, ASCII Character: 'Z' */
;0x07, 0x04, 0x02, 0x01, 0x07,
;
;#else
;/* Font data for displays organized as
;   rows of vertical bytes */
;
;/* Code: 0x20, ASCII Character: ' ' */
;0x00,
;
;/* Code: 0x21, ASCII Character: '!' */
;0x00, 0x00, 0x00, 0x00,
;
;/* Code: 0x22, ASCII Character: '"' */
;0x00, 0x00, 0x00,
;
;/* Code: 0x23, ASCII Character: '#' */
;0x00, 0x00, 0x00, 0x00,
;
;/* Code: 0x24, ASCII Character: '$' */
;0x00, 0x00, 0x00, 0x00,
;
;/* Code: 0x25, ASCII Character: '%' */
;0x00, 0x00, 0x00, 0x00,
;
;/* Code: 0x26, ASCII Character: '&' */
;0x00, 0x00, 0x00, 0x00,
;
;/* Code: 0x27, ASCII Character: ''' */
;0x00, 0x00, 0x00, 0x00,
;
;/* Code: 0x28, ASCII Character: '(' */
;0x00, 0x00, 0x00, 0x00,
;
;/* Code: 0x29, ASCII Character: ')' */
;0x00, 0x00, 0x00, 0x00,
;
;/* Code: 0x2A, ASCII Character: '*' */
;0x00, 0x00, 0x00, 0x00,
;
;/* Code: 0x2B, ASCII Character: '+' */
;0x00, 0x00, 0x00, 0x00,
;
;/* Code: 0x2C, ASCII Character: ',' */
;0x00, 0x00, 0x00, 0x00,
;
;/* Code: 0x2D, ASCII Character: '-' */
;0x00, 0x00, 0x00, 0x00,
;
;/* Code: 0x2E, ASCII Character: '.' */
;0x00, 0x00, 0x00, 0x00,
;
;/* Code: 0x2F, ASCII Character: '/' */
;0x18, 0x06, 0x01, 0x00,
;
;/* Code: 0x30, ASCII Character: '0' */
;0x0E, 0x11, 0x11, 0x0E,
;
;/* Code: 0x31, ASCII Character: '1' */
;0x12, 0x1F, 0x10,
;
;/* Code: 0x32, ASCII Character: '2' */
;0x19, 0x15, 0x15, 0x12,
;
;/* Code: 0x33, ASCII Character: '3' */
;0x11, 0x15, 0x15, 0x0A,
;
;/* Code: 0x34, ASCII Character: '4' */
;0x0C, 0x0A, 0x1F, 0x08,
;
;/* Code: 0x35, ASCII Character: '5' */
;0x17, 0x15, 0x15, 0x09,
;
;/* Code: 0x36, ASCII Character: '6' */
;0x0E, 0x15, 0x15, 0x08,
;
;/* Code: 0x37, ASCII Character: '7' */
;0x01, 0x19, 0x05, 0x03,
;
;/* Code: 0x38, ASCII Character: '8' */
;0x0A, 0x15, 0x15, 0x0A,
;
;/* Code: 0x39, ASCII Character: '9' */
;0x02, 0x15, 0x15, 0x0E,
;
;/* Code: 0x3A, ASCII Character: ':' */
;0x00, 0x0A, 0x00,
;
;/* Code: 0x3B, ASCII Character: ';' */
;0x00, 0x10, 0x0A, 0x00,
;
;/* Code: 0x3C, ASCII Character: '<' */
;0x04, 0x0A, 0x11, 0x00,
;
;/* Code: 0x3D, ASCII Character: '=' */
;0x0A, 0x0A, 0x0A, 0x0A,
;
;/* Code: 0x3E, ASCII Character: '>' */
;0x00, 0x11, 0x0A, 0x04,
;
;/* Code: 0x3F, ASCII Character: '?' */
;0x00, 0x01, 0x15, 0x02,
;
;/* Code: 0x40, ASCII Character: '@' */
;0x00, 0x00, 0x00, 0x00,
;
;/* Code: 0x41, ASCII Character: 'A' */
;0x1E, 0x05, 0x05, 0x1E,
;
;/* Code: 0x42, ASCII Character: 'B' */
;0x1F, 0x15, 0x15, 0x0A,
;
;/* Code: 0x43, ASCII Character: 'C' */
;0x0E, 0x11, 0x11, 0x0A,
;
;/* Code: 0x44, ASCII Character: 'D' */
;0x1F, 0x11, 0x11, 0x0E,
;
;/* Code: 0x45, ASCII Character: 'E' */
;0x1F, 0x15, 0x15, 0x11,
;
;/* Code: 0x46, ASCII Character: 'F' */
;0x1F, 0x05, 0x05, 0x01,
;
;/* Code: 0x47, ASCII Character: 'G' */
;0x0E, 0x11, 0x19, 0x0A,
;
;/* Code: 0x48, ASCII Character: 'H' */
;0x1F, 0x04, 0x04, 0x1F,
;
;/* Code: 0x49, ASCII Character: 'I' */
;0x1F,
;
;/* Code: 0x4A, ASCII Character: 'J' */
;0x08, 0x11, 0x0F, 0x01,
;
;/* Code: 0x4B, ASCII Character: 'K' */
;0x1F, 0x04, 0x0A, 0x11,
;
;/* Code: 0x4C, ASCII Character: 'L' */
;0x1F, 0x10, 0x10,
;
;/* Code: 0x4D, ASCII Character: 'M' */
;0x1F, 0x02, 0x04, 0x02, 0x1F,
;
;/* Code: 0x4E, ASCII Character: 'N' */
;0x1F, 0x02, 0x04, 0x1F,
;
;/* Code: 0x4F, ASCII Character: 'O' */
;0x0E, 0x11, 0x11, 0x0E,
;
;/* Code: 0x50, ASCII Character: 'P' */
;0x1F, 0x05, 0x05, 0x02,
;
;/* Code: 0x51, ASCII Character: 'Q' */
;0x0E, 0x11, 0x19, 0x1E,
;
;/* Code: 0x52, ASCII Character: 'R' */
;0x1F, 0x05, 0x0D, 0x12,
;
;/* Code: 0x53, ASCII Character: 'S' */
;0x12, 0x15, 0x15, 0x09,
;
;/* Code: 0x54, ASCII Character: 'T' */
;0x01, 0x1F, 0x01,
;
;/* Code: 0x55, ASCII Character: 'U' */
;0x0F, 0x10, 0x10, 0x0F,
;
;/* Code: 0x56, ASCII Character: 'V' */
;0x07, 0x18, 0x18, 0x07,
;
;/* Code: 0x57, ASCII Character: 'W' */
;0x1F, 0x08, 0x04, 0x08, 0x1F,
;
;/* Code: 0x58, ASCII Character: 'X' */
;0x1B, 0x04, 0x04, 0x1B,
;
;/* Code: 0x59, ASCII Character: 'Y' */
;0x03, 0x1C, 0x03,
;
;/* Code: 0x5A, ASCII Character: 'Z' */
;0x19, 0x15, 0x13,
;
;#endif
;};
;
;#include <relay_icon_7x7.c>
;/****************************************************************************
;Font created by the LCD Vision V1.05 font & image editor/converter
;(C) Copyright 2011-2013 Pavel Haiduc, HP InfoTech s.r.l.
;http://www.hpinfotech.com
;
;Font name: relay_status
;Fixed font width: 7 pixels
;Font height: 7 pixels
;First character: 0x30
;Last character: 0x31
;
;Exported font data size:
;18 bytes for displays organized as horizontal rows of bytes
;18 bytes for displays organized as rows of vertical bytes.
;****************************************************************************/
;
;flash unsigned char relay_icon_7x7[]=
;{
;0x07, /* Fixed font width */
;0x07, /* Font height */
;0x30, /* First character */
;0x02, /* Number of characters in font */
;
;#ifndef _GLCD_DATA_BYTEY_
;/* Font data for displays organized as
;   horizontal rows of bytes */
;
;/* Code: 0x30, ASCII Character: '0' */
;0x1C, 0x22, 0x41, 0x41, 0x41, 0x22, 0x1C,
;
;/* Code: 0x31, ASCII Character: '1' */
;0x1C, 0x3E, 0x7F, 0x7F, 0x7F, 0x3E, 0x1C,
;
;#else
;/* Font data for displays organized as
;   rows of vertical bytes */
;
;/* Code: 0x30, ASCII Character: '0' */
;0x1C, 0x22, 0x41, 0x41, 0x41, 0x22, 0x1C,
;
;/* Code: 0x31, ASCII Character: '1' */
;0x1C, 0x3E, 0x7F, 0x7F, 0x7F, 0x3E, 0x1C,
;
;#endif
;};
;
;#include <relay_icon_10x14.c>
;/****************************************************************************
;Font created by the LCD Vision V1.05 font & image editor/converter
;(C) Copyright 2011-2013 Pavel Haiduc, HP InfoTech s.r.l.
;http://www.hpinfotech.com
;
;Font name: relay_icon_big
;Fixed font width: 10 pixels
;Font height: 14 pixels
;First character: 0x30
;Last character: 0x31
;
;Exported font data size:
;60 bytes for displays organized as horizontal rows of bytes
;44 bytes for displays organized as rows of vertical bytes.
;****************************************************************************/
;
;flash unsigned char relay_icon_10x14[]=
;{
;0x0A, /* Fixed font width */
;0x0E, /* Font height */
;0x30, /* First character */
;0x02, /* Number of characters in font */
;
;#ifndef _GLCD_DATA_BYTEY_
;/* Font data for displays organized as
;   horizontal rows of bytes */
;
;/* Code: 0x30, ASCII Character: '0' */
;0x00, 0x00, 0x00, 0x00, 0x78, 0x00, 0xFC, 0x00,
;0x86, 0x01, 0x03, 0x03, 0x03, 0x03, 0x03, 0x03,
;0x03, 0x03, 0x03, 0x03, 0x86, 0x01, 0xFC, 0x00,
;0x78, 0x00, 0x00, 0x00,
;
;/* Code: 0x31, ASCII Character: '1' */
;0x00, 0x00, 0x00, 0x00, 0x78, 0x00, 0xFC, 0x00,
;0xFE, 0x01, 0xFF, 0x03, 0xFF, 0x03, 0xFF, 0x03,
;0xFF, 0x03, 0xFF, 0x03, 0xFE, 0x01, 0xFC, 0x00,
;0x78, 0x00, 0x00, 0x00,
;
;#else
;/* Font data for displays organized as
;   rows of vertical bytes */
;
;/* Code: 0x30, ASCII Character: '0' */
;0xE0, 0xF0, 0x18, 0x0C, 0x0C, 0x0C, 0x0C, 0x18,
;0xF0, 0xE0, 0x03, 0x07, 0x0C, 0x18, 0x18, 0x18,
;0x18, 0x0C, 0x07, 0x03,
;
;/* Code: 0x31, ASCII Character: '1' */
;0xE0, 0xF0, 0xF8, 0xFC, 0xFC, 0xFC, 0xFC, 0xF8,
;0xF0, 0xE0, 0x03, 0x07, 0x0F, 0x1F, 0x1F, 0x1F,
;0x1F, 0x0F, 0x07, 0x03,
;
;#endif
;};
;
;#include <phone_signal_10x5.c>
;/****************************************************************************
;Font created by the LCD Vision V1.05 font & image editor/converter
;(C) Copyright 2011-2013 Pavel Haiduc, HP InfoTech s.r.l.
;http://www.hpinfotech.com
;
;Font name: phone_signal_10x5
;The font is proportional (has variable width).
;Font height: 5 pixels
;First character: 0x30
;Last character: 0x36
;
;Exported font data size:
;81 bytes for displays organized as horizontal rows of bytes
;76 bytes for displays organized as rows of vertical bytes.
;****************************************************************************/
;
;flash unsigned char phone_signal_10x5[]=
;{
;0x00, /* Proportional font */
;0x05, /* Font height */
;0x30, /* First character */
;0x07, /* Number of characters in font */
;
;/* Character widths */
;0x0A, 0x09, 0x09, 0x09, 0x09, 0x09, 0x0A,
;
;#ifndef _GLCD_DATA_BYTEY_
;/* Font data for displays organized as
;   horizontal rows of bytes */
;
;/* Code: 0x30, ASCII Character: '0' */
;0x05, 0x02, 0x82, 0x02, 0xA5, 0x02, 0xA8, 0x02,
;0xAA, 0x02,
;
;/* Code: 0x31, ASCII Character: '1' */
;0x00, 0x00, 0x00, 0x00, 0x00, 0x00, 0x00, 0x00,
;0x01, 0x00,
;
;/* Code: 0x32, ASCII Character: '2' */
;0x00, 0x00, 0x00, 0x00, 0x00, 0x00, 0x04, 0x00,
;0x05, 0x00,
;
;/* Code: 0x33, ASCII Character: '3' */
;0x00, 0x00, 0x00, 0x00, 0x10, 0x00, 0x14, 0x00,
;0x15, 0x00,
;
;/* Code: 0x34, ASCII Character: '4' */
;0x00, 0x00, 0x40, 0x00, 0x50, 0x00, 0x54, 0x00,
;0x55, 0x00,
;
;/* Code: 0x35, ASCII Character: '5' */
;0x00, 0x01, 0x40, 0x01, 0x50, 0x01, 0x54, 0x01,
;0x55, 0x01,
;
;/* Code: 0x36, ASCII Character: '6' */
;0x00, 0x00, 0x00, 0x00, 0x00, 0x00, 0x00, 0x00,
;0x00, 0x00,
;
;#else
;/* Font data for displays organized as
;   rows of vertical bytes */
;
;/* Code: 0x30, ASCII Character: '0' */
;0x05, 0x12, 0x05, 0x18, 0x00, 0x1C, 0x00, 0x1E,
;0x00, 0x1F,
;
;/* Code: 0x31, ASCII Character: '1' */
;0x10, 0x00, 0x00, 0x00, 0x00, 0x00, 0x00, 0x00,
;0x00,
;
;/* Code: 0x32, ASCII Character: '2' */
;0x10, 0x00, 0x18, 0x00, 0x00, 0x00, 0x00, 0x00,
;0x00,
;
;/* Code: 0x33, ASCII Character: '3' */
;0x10, 0x00, 0x18, 0x00, 0x1C, 0x00, 0x00, 0x00,
;0x00,
;
;/* Code: 0x34, ASCII Character: '4' */
;0x10, 0x00, 0x18, 0x00, 0x1C, 0x00, 0x1E, 0x00,
;0x00,
;
;/* Code: 0x35, ASCII Character: '5' */
;0x10, 0x00, 0x18, 0x00, 0x1C, 0x00, 0x1E, 0x00,
;0x1F,
;
;/* Code: 0x36, ASCII Character: '6' */
;0x00, 0x00, 0x00, 0x00, 0x00, 0x00, 0x00, 0x00,
;0x00, 0x00,
;
;#endif
;};
;
;#include <delay.h>
;#include <string.h>
;#include <stdlib.h>
;#include <define.c>
;#define ON                      0
;#define OFF                     1
;
;#define btn_enter               !PINA.3
;#define btn_back                !PINA.4
;#define btn_menu                !PINA.5
;#define relay_1                 PORTD.4
;#define relay_2                 PORTD.7
;#define relay_3                 PORTC.7
;#define relay_4                 PORTA.7
;#define relay_5                 PORTA.2
;
;#define backlight               PORTC.6
;
;#define CE                      PORTB.4
;#define CSN                     PORTB.5
;#define SCK                     PORTB.3
;#define MOSI                    PORTB.6
;#define MISO                    PINB.2
;#define IRQ                     PINB.7
;
;#define DATA_REGISTER_EMPTY     (1<<UDRE0)
;#define RX_COMPLETE             (1<<RXC0)
;#define FRAMING_ERROR           (1<<FE0)
;#define PARITY_ERROR            (1<<UPE0)
;#define DATA_OVERRUN            (1<<DOR0)
;
;flash char  *name_week_day[]    =   {"\0","SUN","MON","TUE","WED","THU","FRI","SAT"},

	.DSEG
;
;            *name_day[]         =   {"\0","01","02","03","04","05","06","07","08","09","10",
;                                     "11","12","13","14","15","16","17","18","19","20","21",
;                                     "22","23","24","25","26","27","28","29","30","31"},
;
;            *name_month[]       =   {"\0","JAN","FEB","MAR","APR","MAY","JUN","JUL","AUG","SEP","OCT","NOV","DEC"},
;
;            *name_year[]        =   {"2017","2018","2019","2020","2021","2022","2023","2024",
;                                     "2025","2026","2027","2028","2029","2030","2031","2032"},
;
;
;            *name_second[]      =   {"00","01","02","03","04","05","06","07","08","09",
;                                     "10","11","12","13","14","15","16","17","18","19",
;                                     "20","21","22","23","24","25","26","27","28","29",
;                                     "30","31","32","33","34","35","36","37","38","39",
;                                     "40","41","42","43","44","45","46","47","48","49",
;                                     "50","51","52","53","54","55","56","57","58","59"},
;
;            *name_minute[]      =   {"00","01","02","03","04","05","06","07","08","09",
;                                     "10","11","12","13","14","15","16","17","18","19",
;                                     "20","21","22","23","24","25","26","27","28","29",
;                                     "30","31","32","33","34","35","36","37","38","39",
;                                     "40","41","42","43","44","45","46","47","48","49",
;                                     "50","51","52","53","54","55","56","57","58","59"},
;
;            *name_hour[]        =   {"00","01","02","03","04","05","06","07","08","09","10","11",
;                                     "12","13","14","15","16","17","18","19","20","21","22","23"},
;
;
;            *name_relay[] =   {"\0","01","02","03","04","05","ALL"};
;unsigned long milisec = 0, dem;
;bool    blink                   =   true,
;        is_show_clock           =   false,
;        is_sim_init_ok			=	true;
;
;int             x               =   10,
;                y               =   15;
;
;const int       NEW_LINE        =   8,
;
;                BIG_COLON_X     =   33,
;                BIG_COLON_Y     =   13,
;
;                SMALL_COLON_Y   =   30;
;
;
;unsigned char   week_day        =   1,
;                day             =   1,
;                month           =   1,
;                year            =   1,
;
;                hour            =   0,
;                minute          =   0,
;                second          =   0;
;#include <rf.c>
;//HU?NG D?N G?I-NH?N ? DU?I CNG
;
;// SPI(nRF24L01) commands
;#define READ_REG        0x00  // Define read command to register
;#define WRITE_REG       0x20  // Define write command to register
;#define RD_RX_PLOAD     0x61  // Define RX payload register address
;#define WR_TX_PLOAD     0xA0  // Define TX payload register address
;#define FLUSH_TX        0xE1  // Define flush TX register command
;#define FLUSH_RX        0xE2  // Define flush RX register command
;#define REUSE_TX_PL     0xE3  // Define reuse TX payload register command
;#define NOP             0xFF  // Define No Operation, might be used to read status register
;//------------------------
;#define RX_DR    0x40
;#define TX_DS    0x20
;#define MAX_RT   0x10
;//-------------------------
;
;#define CONFIG          0x00  // 'Config' register address
;#define EN_AA           0x01  // 'Enable Auto Acknowledgment' register address
;#define EN_RXADDR       0x02  // 'Enabled RX addresses' register address
;#define SETUP_AW        0x03  // 'Setup address width' register address
;#define SETUP_RETR      0x04  // 'Setup Auto. Retrans' register address
;#define RF_CH           0x05  // 'RF channel' register address
;#define RF_SETUP        0x06  // 'RF setup' register address
;#define STATUS          0x07  // 'Status' register address
;#define OBSERVE_TX      0x08  // 'Observe TX' register address
;#define RPD              0x09  // 'Carrier Detect' register address
;#define RX_ADDR_P0      0x0A  // 'RX address pipe0' register address
;#define RX_ADDR_P1      0x0B  // 'RX address pipe1' register address
;#define RX_ADDR_P2      0x0C  // 'RX address pipe2' register address
;#define RX_ADDR_P3      0x0D  // 'RX address pipe3' register address
;#define RX_ADDR_P4      0x0E  // 'RX address pipe4' register address
;#define RX_ADDR_P5      0x0F  // 'RX address pipe5' register address
;#define TX_ADDR         0x10  // 'TX address' register address
;#define RX_PW_P0        0x11  // 'RX payload width, pipe0' register address
;#define RX_PW_P1        0x12  // 'RX payload width, pipe1' register address
;#define RX_PW_P2        0x13  // 'RX payload width, pipe2' register address
;#define RX_PW_P3        0x14  // 'RX payload width, pipe3' register address
;#define RX_PW_P4        0x15  // 'RX payload width, pipe4' register address
;#define RX_PW_P5        0x16  // 'RX payload width, pipe5' register address
;#define FIFO_STATUS     0x17  // 'FIFO Status Register' register address
;#define FEATURE         0x1D  // 'FEATURE' register address
;#define DYNPD           0x1C  // 'DYNAMIC PAYLOAD' register address
;/*----------------------
;M?i d?a ch? truy?n-nh?n g?m 5byte
;Ch? d? Multireceive th 1 PRX c th? nh?n du?c cng lc t? 6 PTX khc nhau
;D? li?u s? trao d?i qua cc Pipe, t? Pipe_0 d?n Pipe_5
;T? Pipe_2 tr? di, d?a ch? nh?n s? c 4 byte d?u gi?ng d?a ch? c?a Pipe_1
;
;? bn G?I
;PTX_0: 5byte (Address1)
;PTX_1: 5byte (Address2)
;PTX_2: 4byte (Address2) + 1 byte (Address3)
;PTX_3: 4byte (Address2) + 1 byte (Address4)
;PTX_4: 4byte (Address2) + 1 byte (Address5)
;PTX_5: 4byte (Address2) + 1 byte (Address6)
;
;? bn NH?N do ch? c 1 con nn ta quan tm d?n d?a ch? cc pipe nh?n khc nhau
;Pipe0_RX_Add: 5byte (Address1)
;Pipe1_RX_Add: 5byte (Address2)
;Pipe2_RX_Add: 4byte (Address2) + 1 byte (Address3)
;Pipe3_RX_Add: 4byte (Address2) + 1 byte (Address4)
;Pipe4_RX_Add: 4byte (Address2) + 1 byte (Address5)
;Pipe5_RX_Add: 4byte (Address2) + 1 byte (Address6)
;
;----------------------*/
;// unsigned char Send_Add, Address1, Address2, Address3, Address4, Address5, Address6;
;unsigned char Address1, Address2, Address3, Address4;
;
;/*-------SPI---------*/
;void SPI_Write(unsigned char Buff);
;unsigned char SPI_Read(void);
;void RF_Command(unsigned char command);
;void RF_Write(unsigned char Reg_Add, unsigned char Value);
;void RF_Write_Add(unsigned char Reg_Add, unsigned char Value);
;void Common_Config();
;/*-------TX_Mode---------*/
;/*
;void RF_Write_Add_TX_2(unsigned char Reg_Add, unsigned char Address, unsigned char Address2);
;void TX_Address(unsigned char Address);
;void TX_Address_2(unsigned char Address, unsigned char Address2);
;void TX_Mode();
;void TX_Config();
;void TX_Config_2();
;void TX_Send();
;void TX_Send_2();
;*/
;/*-------RX_Mode---------*/
;void RF_Write_Add_RX_2(unsigned char Reg_Add, unsigned char Address, unsigned char Address2);
;void RX_Address(unsigned char Address_Pipe, unsigned char Address);
;void RX_Address_2(unsigned char Address_Pipe, unsigned char Address, unsigned char Address2);
;void RX_Mode();
;//void RX_Config();
;void RX_Config_4();
;//void RX_Config_6();
;void RX_Read();
;
;
;
;/*----------------------
;C?u trc d? li?u d?ng typedef s? chuy?n d? li?u struct trong m?ng station_info v?i
;cc thu?c tnh c?a struct bn trong v gn vo station_receiver cho bn nh?n ho?c
;station_send cho bn g?i.
;----------------------*/
;typedef struct{
;    int flag;
;    int light;
;    int humi;
;    int temp;
;    int sm;
;    int water;
;}station_info;
;
;station_info station_receive;
;// station_info station_send;
;/*----------------------
;y l hm ghi d? li?u vo SPI
;Do khng dng modul SPI c?ng trn cc chn I/O c?a AVR
;Nn s? d?ng hm ny d? ghi d? li?u vo
;?ng th?i d?c gi tr? m SPI tr? v?, tham v?ng check du?c ACK
;----------------------*/
;void SPI_Write(unsigned char Buff){
; 0000 0010 void SPI_Write(unsigned char Buff){

	.CSEG
_SPI_Write:
; .FSTART _SPI_Write
;    unsigned char bit_ctr;
;    for(bit_ctr=0;bit_ctr<8;bit_ctr++){
	ST   -Y,R26
	ST   -Y,R17
;	Buff -> Y+1
;	bit_ctr -> R17
	LDI  R17,LOW(0)
_0xD:
	CPI  R17,8
	BRSH _0xE
;        MOSI = (Buff & 0x80);
	LDD  R30,Y+1
	ANDI R30,LOW(0x80)
	BRNE _0xF
	CBI  0x18,6
	RJMP _0x10
_0xF:
	SBI  0x18,6
_0x10:
;        delay_us(5);
	__DELAY_USB 13
;        Buff = (Buff << 1);
	LDD  R30,Y+1
	LSL  R30
	STD  Y+1,R30
;        SCK = 1;
	CALL SUBOPT_0x0
;        delay_us(5);
;        Buff |= MISO;
	LDD  R26,Y+1
	OR   R30,R26
	STD  Y+1,R30
;        SCK = 0;
	CBI  0x18,3
;    }
	SUBI R17,-1
	RJMP _0xD
_0xE:
;}
	LDD  R17,Y+0
	RJMP _0x216001E
; .FEND
;/*----------------------
;y l hm d?c d? li?u ra t? SPI
;Do khng dng modul SPI c?ng trn cc chn I/O c?a AVR
;Nn s? d?ng hm ny d? d?c d? li?u ra
;----------------------*/
;unsigned char SPI_Read(void){
_SPI_Read:
; .FSTART _SPI_Read
;    unsigned char Buff=0;
;    unsigned char bit_ctr;
;    for(bit_ctr=0;bit_ctr<8;bit_ctr++){
	ST   -Y,R17
	ST   -Y,R16
;	Buff -> R17
;	bit_ctr -> R16
	LDI  R17,0
	LDI  R16,LOW(0)
_0x16:
	CPI  R16,8
	BRSH _0x17
;        delay_us(5);
	__DELAY_USB 13
;        Buff = (Buff << 1);
	LSL  R17
;        SCK = 1;
	CALL SUBOPT_0x0
;        delay_us(5);
;        Buff |= MISO;
	OR   R17,R30
;        SCK = 0;
	CBI  0x18,3
;    }
	SUBI R16,-1
	RJMP _0x16
_0x17:
;    return(Buff);
	MOV  R30,R17
	RJMP _0x216001B
;}
; .FEND
;/*----------------------
;RF_Command dng d? ghi Command tr?c ti?p vo nRF24L01
;----------------------*/
;void RF_Command(unsigned char command){
_RF_Command:
; .FSTART _RF_Command
;    CSN=0;
	ST   -Y,R26
;	command -> Y+0
	CBI  0x18,5
;    SPI_Write(command);
	CALL SUBOPT_0x1
;    CSN=1;
;    delay_us(10);
;}
	RJMP _0x2160018
; .FEND
;/*----------------------
;RF_Write dng d? ghi d? li?u vo thanh ghi c?a nRF24L01
;----------------------*/
;void RF_Write(unsigned char Reg_Add, unsigned char Value){
_RF_Write:
; .FSTART _RF_Write
;    CSN=0;
	ST   -Y,R26
;	Reg_Add -> Y+1
;	Value -> Y+0
	CBI  0x18,5
;    SPI_Write(0b00100000|Reg_Add);
	LDD  R30,Y+1
	ORI  R30,0x20
	MOV  R26,R30
	RJMP _0x216001D
;    SPI_Write(Value);
;    CSN=1;
;    delay_us(10);
;}
; .FEND
;/*----------------------
;RF_Write_Add dng d? ghi d?a ch? cho nRF24L01
;L?nh ny dng du?c ? c? PTX v PRX v truy?n nh?n 1-1
;? dy ghi cng lc 5 byte d?a ch? gi?ng h?t nhau vo cng 1 thanh ghi
;Thu?ng dng khi truy?n-nh?n 1-1
;----------------------*/
;void RF_Write_Add(unsigned char Reg_Add, unsigned char Value){
_RF_Write_Add:
; .FSTART _RF_Write_Add
;    CSN=0;
	ST   -Y,R26
;	Reg_Add -> Y+1
;	Value -> Y+0
	CBI  0x18,5
;    SPI_Write(0b00100000|Reg_Add);
	LDD  R30,Y+1
	CALL SUBOPT_0x2
;    SPI_Write(Value);
;    SPI_Write(Value);
;    SPI_Write(Value);
;    SPI_Write(Value);
_0x216001D:
	RCALL _SPI_Write
;    SPI_Write(Value);
	CALL SUBOPT_0x1
;    CSN=1;
;    delay_us(10);
;}
_0x216001E:
	ADIW R28,2
	RET
; .FEND
;/*----------------------
;RF_Write_Add_TX_2 dng d? ghi d?a ch? TRUY?N cho nRF24L01 trong ch? d? Multireceive
;Khi g?i b?t d?u t? PTX_2 tr? di th b?t bu?c 4byte d?a ch? sau ph?i gi?ng d?a ch?
;c?a PTX_1 nn ph?i ghi 4 byte d?a ch? sau theo Address2 (l d?a ch? c?a PTX_1)
;Ch : Address ? dy ng?m d?nh l d?a ch? c?a PTX_2...5
;----------------------*/
;/*
;void RF_Write_Add_TX_2(unsigned char Reg_Add, unsigned char Address, unsigned char Address2){
;    CSN=0;
;    SPI_Write(0b00100000|Reg_Add);
;    SPI_Write(Address);
;    SPI_Write(Address2);
;    SPI_Write(Address2);
;    SPI_Write(Address2);
;    SPI_Write(Address2);
;    CSN=1;
;    delay_us(10);
;}*/
;/*----------------------
;RF_Write_Add_RX_2 dng d? ghi d?a ch? NH?N cho nRF24L01 trong ch? d? Multireceive
;Khi g?i b?t d?u t? PTX_2 tr? di th b?t bu?c 4byte d?a ch? sau ph?i gi?ng d?a ch?
;c?a PTX_1 nn ph?i ghi 4 byte d?a ch? sau theo Address2 (l d?a ch? c?a PTX_1)
;Ch : Address ? dy ng?m d?nh l d?a ch? c?a PTX_2...5
;C l? do bn PTX Address du?c ghi vo d?u tin nn ? PRX Address ph?i du?c ghi vo
;cu?i cng. Theo logic truy?n - nh?n n?i ti?p
;----------------------*/
;void RF_Write_Add_RX_2(unsigned char Reg_Add, unsigned char Address, unsigned char Address2){
_RF_Write_Add_RX_2:
; .FSTART _RF_Write_Add_RX_2
;    CSN=0;
	ST   -Y,R26
;	Reg_Add -> Y+2
;	Address -> Y+1
;	Address2 -> Y+0
	CBI  0x18,5
;    SPI_Write(0b00100000|Reg_Add);
	LDD  R30,Y+2
	CALL SUBOPT_0x2
;    SPI_Write(Address2);
;    SPI_Write(Address2);
;    SPI_Write(Address2);
;    SPI_Write(Address2);
	RCALL _SPI_Write
;    SPI_Write(Address);
	LDD  R26,Y+1
	RCALL _SPI_Write
;    CSN=1;
	CALL SUBOPT_0x3
;    delay_us(10);
;}
	RJMP _0x216001C
; .FEND
;/*----------------------
;TX_Address dng d? ghi d?a ch? vo thanh ghi d?a ch? c?a PTX ? ch? d? truy?n nh?n 1-1
;ho?c ch? d? Multireceive th ? cc PTX_0 v PTX_1
;----------------------*/
;/*
;void TX_Address(unsigned char Address){
;    CSN=0;
;    RF_Write(SETUP_AW,0b00000011); //ghi vo d? r?ng d?a ch? -  5byte
;    CSN=1;
;    delay_us(10);
;    CSN=0;
;    RF_Write_Add(TX_ADDR, Address); //thanh ghi d?a ch? truy?n
;} */
;/*----------------------
;TX_Address_2 dng d? ghi d?a ch? vo thanh ghi d?a ch? c?a PTX ? ch? d? Multireceive
;L?nh ny b?t d?u ghi ? cc PTX_2 tr? di d?n PTX_5
;? r?ng d?a ch? cung l 5byte
;----------------------*/
;/*
;void TX_Address_2(unsigned char Address, unsigned char Address2){
;    CSN=0;
;    RF_Write(SETUP_AW,0b00000011);
;    CSN=1;
;    delay_us(10);
;    CSN=0;
;    RF_Write_Add_TX_2(TX_ADDR, Address, Address2);
;} */
;/*----------------------
;RX_Address dng d? ghi d?a ch? vo thanh ghi d?a ch? c?a PRX ? ch? d? truy?n nh?n 1-1
;ho?c ch? d? Multireceive th ? cc Pipe_0 v Pipe_1
;? r?ng d?a ch? l 5byte
;----------------------*/
;void RX_Address(unsigned char Address_Pipe, unsigned char Address){
_RX_Address:
; .FSTART _RX_Address
;    CSN=0;
	CALL SUBOPT_0x4
;	Address_Pipe -> Y+1
;	Address -> Y+0
;    RF_Write(SETUP_AW,0b00000011);
;    CSN=1;
;    delay_us(10);
;    CSN=0;
	CBI  0x18,5
;    RF_Write_Add(Address_Pipe, Address);
	LDD  R30,Y+1
	ST   -Y,R30
	LDD  R26,Y+1
	RCALL _RF_Write_Add
;}
	RJMP _0x2160013
; .FEND
;/*----------------------
;RX_Address_2 dng d? ghi d?a ch? vo thanh ghi d?a ch? c?a PRX ? ch? d? Multireceive
;L?nh ny b?t d?u ghi ? cc Pipe_2 tr? di d?n Pipe_5
;? r?ng d?a ch? cung l 5byte
;Address2 ng?m hi?u l d?a ch? c?a pipe 1
;Address ng?m hi?u l d?a ch? c?a Pipe t? 2 - Pipe 5
;----------------------*/
;void RX_Address_2(unsigned char Address_Pipe, unsigned char Address, unsigned char Address2){
_RX_Address_2:
; .FSTART _RX_Address_2
;    CSN=0;
	CALL SUBOPT_0x4
;	Address_Pipe -> Y+2
;	Address -> Y+1
;	Address2 -> Y+0
;    RF_Write(SETUP_AW,0b00000011);
;    CSN=1;
;    delay_us(10);
;    CSN=0;
	CBI  0x18,5
;    RF_Write_Add_RX_2(Address_Pipe, Address, Address2);  //ghi vao pipe number, d?a ch? v d?a ch? pipe 1
	LDD  R30,Y+2
	ST   -Y,R30
	LDD  R30,Y+2
	ST   -Y,R30
	LDD  R26,Y+2
	RCALL _RF_Write_Add_RX_2
;}
_0x216001C:
	ADIW R28,3
	RET
; .FEND
;/*----------------------
;Config cho nRF24L01 ? ch? d? ho?t d?ng
;M?c d?nh l ch? d? truy?n d? li?u, thanh ghi CONFIG 0x1E
;Flush TX v RX d? xo h?t d? li?u trong b? d?m
;----------------------*/
;void Common_Config(){
_Common_Config:
; .FSTART _Common_Config
;    CE=1;
	SBI  0x18,4
;    delay_us(700);
	__DELAY_USW 1400
;    CE=0;
	CBI  0x18,4
;    CSN=1;
	SBI  0x18,5
;    SCK=0;
	CBI  0x18,3
;    delay_us(100);
	__DELAY_USW 200
;    RF_Write(STATUS,0b01111110); //STATUS 0x7E; clear all IRQ flag
	CALL SUBOPT_0x5
;    RF_Command(0b11100010);    //0xE2; flush RX
;    RF_Command(0b11100001);    //Flush TX 0xE1
	LDI  R26,LOW(225)
	RCALL _RF_Command
;    RF_Write(CONFIG,0b00011111); //0x1E; truy?n d? li?u
	LDI  R30,LOW(0)
	ST   -Y,R30
	LDI  R26,LOW(31)
	RCALL _RF_Write
;    delay_ms(2);
	LDI  R26,LOW(2)
	LDI  R27,0
	CALL _delay_ms
;    RF_Write(RF_CH,0b00000010); //RF_CH 0x05 Chanel 0 RF = 2400 + RF_CH* (1or 2 M)
	LDI  R30,LOW(5)
	ST   -Y,R30
	LDI  R26,LOW(2)
	RCALL _RF_Write
;    RF_Write(RF_SETUP,0b00000111); //RF_SETUP 0x07 = 1M, 0dBm
	LDI  R30,LOW(6)
	ST   -Y,R30
	LDI  R26,LOW(7)
	RCALL _RF_Write
;    RF_Write(FEATURE, 0b00000100); //0x1D Dynamic payload length
	LDI  R30,LOW(29)
	ST   -Y,R30
	LDI  R26,LOW(4)
	RCALL _RF_Write
;}
	RET
; .FEND
;/*----------------------
;ua nRF24L01 v? ch? d? truy?n d? li?u
;Lc ny c?n xo h?t cc thanh ghi trong IRQ v dua chn CE ? m?c th?p
;----------------------*/
;/*
;void TX_Mode(){
;    CE=0;
;    RF_Write(CONFIG,0b00011110);
;    delay_us(130);    //nrf can de khoi dong vao rx mode hoac txmode
;} */
;/*----------------------
;ua nRF24L01 v? ch? d? nh?n d? li?u
;Lc ny c?n xo h?t cc thanh ghi trong IRQ v dua chn CE ln m?c cao
;----------------------*/
;void RX_Mode(){
_RX_Mode:
; .FSTART _RX_Mode
;    RF_Write(CONFIG,0b00011111);
	LDI  R30,LOW(0)
	ST   -Y,R30
	LDI  R26,LOW(31)
	RCALL _RF_Write
;    CE=1;
	SBI  0x18,4
;    delay_us(130);    //nrf can de khoi dong vao rx mode hoac txmode
	__DELAY_USW 260
;}
	RET
; .FEND
;/*----------------------
;Config cho nRF24L01 ? ch? d? TRUY?N d? li?u 1-1 ho?c ch? d? Multireceive
;th config cho cc PTX_0 v PTX_1
;Xo h?t d? li?u trong thanh ghi IRQ
;Flush h?t d? li?u ? b? d?m nh?n v truy?n.
;Ci d?t dynamic payload ? Pipe_0
;Enable Pipe_0 d? truy?n d? li?u
;----------------------*/
;/*
;void TX_Config(){
;    RF_Write(STATUS,0b01111110); //xo IRQ flag
;    RF_Command(0b11100001); //Flush TX 0xE1
;    TX_Address(Send_Add);   //Ghi d?a ch? g?i d? li?u vo nRF24L01
;    RF_Write(DYNPD,0b00000001); //?t ch? d? dynamic paypload ? pipe 0
;    RF_Write(EN_RXADDR,0b00000001); //Enable Pipe 0
;} */
;/*----------------------
;TX_Config_2()
;Config cho nRF24L01 ? ch? d? TRUY?N d? li?u Multireceive
;Dng cho cc PTX t? PTX_2 d?n PTX_5
;Xo h?t d? li?u trong thanh ghi IRQ
;Flush h?t d? li?u ? b? d?m nh?n v truy?n.
;G?i di th dng Pipe_0 ? PTX nn ch? ci d?t dynamic payload ? Pipe_0
;Enable Pipe_0 d? truy?n d? li?u
;----------------------*/
;/*
;void TX_Config_2(){
;    RF_Write(STATUS,0b01111110); //xo IRQ flag
;    RF_Command(0b11100001); //Flush TX 0xE1
;    TX_Address_2(Send_Add, Address2); //Ghi d?a ch? g?i d? li?u vo nRF24L01
;    RF_Write(DYNPD,0b00000001); //?t ch? d? dynamic paypload ? pipe 0
;    RF_Write(EN_RXADDR,0b00000001); //Enable Pipe 0
;} */
;/*----------------------
;RX_Config()
;Config cho nRF24L01 ? ch? d? NH?N d? li?u 1-1
;Xo h?t d? li?u trong thanh ghi IRQ
;Flush h?t d? li?u ? b? d?m nh?n v truy?n.
;M? cc Pipe t? 0 v ci d?t ch? d? dynamic payload
;? Pipe_0 d?a ch? du?c ghi vo theo 5 byte Address1
;----------------------*/
;/*
;void RX_Config(){
;    RF_Write(STATUS,0b01111110); //xo IRQ flag
;    RF_Command(0b11100010); //Flush RX
;    RF_Write(DYNPD,0b00000001); //?t ch? d? dynamic paypload ? pipe 0
;    RF_Write(EN_RXADDR,0b00000001); //Enable RX ? Pipe 0
;    RX_Address(RX_ADDR_P0, Address1);
;} */
;/*----------------------
;RX_Config_4()
;Config cho nRF24L01 ? ch? d? NH?N d? li?u Multireceive (4 Pipe)
;Xo h?t d? li?u trong thanh ghi IRQ
;Flush h?t d? li?u ? b? d?m nh?n v truy?n.
;M? cc Pipe t? 0 d?n 4 v ci d?t ch? d? dynamic payload
;? Pipe_0 d?a ch? du?c ghi vo theo 5 byte Address1
;? Pipe_1 d?a ch? du?c ghi vo theo 5 byte Address2
;? Pipe_2 d?a ch? du?c ghi vo theo 4 byte Address2 v 1 byte Address3
;? Pipe_3 d?a ch? du?c ghi vo theo 4 byte Address2 v 1 byte Address4
;----------------------*/
;void RX_Config_4(){
_RX_Config_4:
; .FSTART _RX_Config_4
;    RF_Write(STATUS,0b01111110); //xo IRQ flag
	CALL SUBOPT_0x5
;    RF_Command(0b11100010); //0xE2 = Flush RX
;    RF_Write(DYNPD,0b00001111); //?t ch? d? dynamic paypload ? pipe 0-4
	LDI  R30,LOW(28)
	ST   -Y,R30
	LDI  R26,LOW(15)
	RCALL _RF_Write
;    RF_Write(EN_RXADDR,0b00001111); //Enable RX ? Pipe 0 - pipe 4
	LDI  R30,LOW(2)
	ST   -Y,R30
	LDI  R26,LOW(15)
	RCALL _RF_Write
;    RX_Address(RX_ADDR_P0, Address1);
	LDI  R30,LOW(10)
	ST   -Y,R30
	LDS  R26,_Address1
	RCALL _RX_Address
;    RX_Address(RX_ADDR_P1, Address2);
	LDI  R30,LOW(11)
	ST   -Y,R30
	LDS  R26,_Address2
	RCALL _RX_Address
;    RX_Address_2(RX_ADDR_P2, Address3, Address2);
	LDI  R30,LOW(12)
	ST   -Y,R30
	LDS  R30,_Address3
	ST   -Y,R30
	LDS  R26,_Address2
	RCALL _RX_Address_2
;    RX_Address_2(RX_ADDR_P3, Address4, Address2);
	LDI  R30,LOW(13)
	ST   -Y,R30
	LDS  R30,_Address4
	ST   -Y,R30
	LDS  R26,_Address2
	RCALL _RX_Address_2
;}
	RET
; .FEND
;/*----------------------
;RX_Config_6()
;Config cho nRF24L01 ? ch? d? NH?N d? li?u Multireceive (6 Pipe)
;Xo h?t d? li?u trong thanh ghi IRQ
;Flush h?t d? li?u ? b? d?m nh?n v truy?n.
;M? cc Pipe t? 0 d?n 4 v ci d?t ch? d? dynamic payload
;? Pipe_0 d?a ch? du?c ghi vo theo 5 byte Address1
;? Pipe_1 d?a ch? du?c ghi vo theo 5 byte Address2
;? Pipe_2 d?a ch? du?c ghi vo theo 4 byte Address2 v 1 byte Address3
;? Pipe_3 d?a ch? du?c ghi vo theo 4 byte Address2 v 1 byte Address4
;? Pipe_4 d?a ch? du?c ghi vo theo 4 byte Address2 v 1 byte Address5
;? Pipe_5 d?a ch? du?c ghi vo theo 4 byte Address2 v 1 byte Address6
;----------------------*/
;/*
;void RX_Config_6(){
;    RF_Write(STATUS,0b01111110);
;    RF_Command(0b11100010); //0xE2 = Flush RX
;    RF_Write(DYNPD,0b00111111);
;    RF_Write(EN_RXADDR,0b00111111);
;    RX_Address(RX_ADDR_P0, Address1);
;    RX_Address(RX_ADDR_P1, Address2);
;    RX_Address_2(RX_ADDR_P2, Address3, Address2);
;    RX_Address_2(RX_ADDR_P3, Address4, Address2);
;    RX_Address_2(RX_ADDR_P4, Address5, Address2);
;    RX_Address_2(RX_ADDR_P5, Address6, Address2);
;} */
;/*----------------------
;TX_Send()
;Config cho nRF24L01 ? ch? d? TRUY?N d? li?u ? ch? d? 1-1
;Ho?c Multireceive nhung ? cc PTX_0 v PTX_1
;Xo h?t d? li?u trong thanh ghi IRQ
;Flush h?t d? li?u ? b? d?m truy?n.
;Ghi d? li?u c?n g?i vo payload truy?n
;Sau khi truy?n di th xo h?t cc IRQ
;Ghi d?a ch? g?i d? li?u vo nRF24L01 - KHNG HI?U CH? NY
;Sau khi g?i d? li?u di th FLUSH h?t b? d?m G?I
;----------------------*/
;/*
;void TX_Send(){
;    TX_Address(Send_Add); //Ghi d?a ch? g?i d? li?u vo nRF24L01
;    CSN=1;
;    delay_us(10);
;    CSN=0;
;    SPI_Write(0b11100001); //0xE1=Define flush TX register command
;    CSN=1;
;    delay_us(10);
;    CSN=0;
;    SPI_Write(0b10100000); //0xA0 = Define TX payload register address
;    SPI_Write(station_send.flag); //ghi d? li?u vo payload
;    SPI_Write(station_send.light);
;    SPI_Write(station_send.humi);
;    SPI_Write(station_send.temp);
;    SPI_Write(station_send.sm);
;    SPI_Write(station_send.water);
;    CSN=1;
;    CE=1;
;    delay_us(500);
;    CE=0;
;    RF_Write(0x07,0b01111110); //STATUS, 0x7E-clear IRQ flag (Tam test 0x70 van chay)
;    TX_Address(Send_Add); //Ghi d?a ch? g?i d? li?u vo nRF24L01
;    RF_Command(0b11100001);//Flush TX 0xE1
;} */
;/*----------------------
;TX_Send_2()
;Config cho nRF24L01 ? ch? d? TRUY?N d? li?u Multireceive t? PTX_2 v PTX_5
;Xo h?t d? li?u trong thanh ghi IRQ
;Flush h?t d? li?u ? b? d?m truy?n.
;Ghi d? li?u c?n g?i vo payload truy?n
;Sau khi truy?n di th xo h?t cc IRQ
;Ghi d?a ch? g?i d? li?u vo nRF24L01 - KHNG HI?U CH? NY
;Sau khi g?i d? li?u di th FLUSH h?t b? d?m G?I
;----------------------*/
;/*
;void TX_Send_2(){
;    TX_Address_2(Send_Add, Address2); //Ghi d? li?u vo nRF24L01 theo d?ng 4byte Address2 v 1 byte Send_Add
;    CSN=1;
;    delay_us(10);
;    CSN=0;
;    SPI_Write(0b11100001);
;    CSN=1;
;    delay_us(10);
;    CSN=0;
;    SPI_Write(0b10100000);
;    SPI_Write(station_send.flag);
;    SPI_Write(station_send.light);
;    SPI_Write(station_send.humi);
;    SPI_Write(station_send.temp);
;    SPI_Write(station_send.sm);
;    SPI_Write(station_send.water);
;    CSN=1;
;    CE=1;
;    delay_us(500);
;    CE=0;
;    RF_Write(0x07,0b01111110);
;    TX_Address_2(Send_Add, Address2);
;    RF_Command(0b11100001);
;} */
;/*----------------------
;RX_Read()
;?c d? li?u t? buffer c?a b? NH?N d? li?u
;?c t? b? d?m RX cc gi tr? du?c luu vo khi nh?n du?c
;Sau khi d?c xong th clear h?t cc thanh ghi IRQ
;v Flush b? d?m nh?n
;----------------------*/
;void RX_Read(){
_RX_Read:
; .FSTART _RX_Read
;    CE=0;
	CBI  0x18,4
;    CSN=1;
	CALL SUBOPT_0x3
;    delay_us(10);
;    CSN=0;
	CBI  0x18,5
;    SPI_Write(0b01100001); //0x61 = Define RX payload register address
	LDI  R26,LOW(97)
	RCALL _SPI_Write
;    delay_us(10);
	__DELAY_USB 27
;    station_receive.flag = SPI_Read();
	RCALL _SPI_Read
	LDI  R31,0
	STS  _station_receive,R30
	STS  _station_receive+1,R31
;    station_receive.light = SPI_Read();
	RCALL _SPI_Read
	__POINTW2MN _station_receive,2
	CALL SUBOPT_0x6
;    station_receive.humi = SPI_Read();
	__POINTW2MN _station_receive,4
	CALL SUBOPT_0x6
;    station_receive.temp = SPI_Read();
	__POINTW2MN _station_receive,6
	CALL SUBOPT_0x6
;    station_receive.sm = SPI_Read();
	__POINTW2MN _station_receive,8
	CALL SUBOPT_0x6
;    station_receive.water = SPI_Read();
	__POINTW2MN _station_receive,10
	LDI  R31,0
	ST   X+,R30
	ST   X,R31
;    CSN=1;
	SBI  0x18,5
;    CE=1;
	SBI  0x18,4
;    RF_Write(STATUS,0b01111110); // 0x7E-clear IRQ flag
	CALL SUBOPT_0x5
;    RF_Command(0b11100010); //0xE2 = Flush RX
;}
	RET
; .FEND
;
;
;
;/*------------
;// Chuong trnh g?i dnh cho tr?m 1
;Address1=0xA1;  //y chnh l Send_Add lc khai bo  ???
;Common_Config();
;TX_mode();
;TX_config();
;TX_send();
;
;// Chuong trnh g?i dnh cho tr?m 2
;Address2=0xA2;  //Cn dy chnh l Address1 
;Common_Config();
;TX_mode();
;TX_config();
;TX_send();
;
;// Chuong trnh g?i dnh cho tr?m 3
;Address2=0xA2;
;Address3=0xA3
;Common_Config();
;TX_mode();
;TX_config_2();
;TX_send_2();
;
;// Chuong trnh g?i dnh cho tr?m 4
;Address2=0xA2;
;Address4=0xA4;
;Common_Config();
;TX_mode();
;TX_config_2();
;TX_send_2();
;// Chuong trnh g?i dnh cho tr?m 5
;Address2=0xA2;
;Address5=0xA5;
;Common_Config();
;TX_mode();
;TX_config_2();
;TX_send_2();
;// Chuong trnh g?i dnh cho tr?m 6
;Address2=0xA2;
;Address6=0xA6;
;Common_Config();
;TX_mode();
;TX_config_2();
;TX_send_2();
;// Chuong trnh nh?n dnh cho 4 tr?m
;Address1 = 0xA1;
;Address2 = 0xA2;
;Address3 = 0xA3;
;Address4 = 0xA4;
;Common_Config();
;RX_Mode();
;RX_Config_4();
;if(IRQ == 0){
;        RX_Read();
;            }
;// Chuong trnh nh?n dnh cho 6 tr?m
;Address1 = 0xA1;
;Address2 = 0xA2;
;Address3 = 0xA3;
;Address4 = 0xA4;
;Address5 = 0xA5;
;Address6 = 0xA6;
;Common_Config();
;RX_Mode();
;RX_Config_6();
;if(IRQ == 0){
;        RX_Read();
;            }
;--------------*/
;
;typedef struct {
;	bool 	status;
;	bool 	active_hour[24];
;	bool 	active_week_day[8];
;    bool    is_set_time;
;    int     time_left_m;
;    int     time_left_s;
;    int 	alarm_time_m;
;} relay_type;
;eeprom relay_type node[6];
;
;#include <menu.c>
;void clrscr                     (); //clear glcd and default setfont
;void gui_init                   (); //main screen include menu, time, SIM signal, relay status
;void gui_print_time             (); //display time, date in main screen
;void gui_colon_blink            (); //blinking second dot
;void gui_set_choice             (int co_y, unsigned char *s);   //dich chuyen con tro khi bam phim back trong luc chon m ...
;void gui_choose_relay           (); //display relay menu
;void gui_current_time           (); //display time menu
;void exe_main_menu              (int command);  //execute commands from main menu
;void gui_cursor_move            (int erase_position);   //move cursor function
;void gui_main_menu              (); //display main menu
;void node_info_examine          (station_info station_receive); //auto proccess over data receiver
;void get_relay_status           (); //get relay status and display on main screen
;void gui_set_title              (unsigned char *s); //set title menu
;void gui_gprs_read              ();
;
;
;
;void clrscr() {
; 0000 001D void clrscr() {
_clrscr:
; .FSTART _clrscr
;    glcd_clear();
	CALL _glcd_clear
;    glcd_moveto(0,0);
	LDI  R30,LOW(0)
	ST   -Y,R30
	LDI  R26,LOW(0)
	CALL _glcd_moveto
;    glcd_setfont(font5x7);
	CALL SUBOPT_0x7
;}
	RET
; .FEND
;void gui_init() {
_gui_init:
; .FSTART _gui_init
;    int i = 0;
;    clrscr();
	CALL SUBOPT_0x8
;	i -> R16,R17
	RCALL _clrscr
;    glcd_rectangle(0,0,84,48);                      // hinh chu nhat bao quanh man hinh
	CALL SUBOPT_0x9
	LDI  R26,LOW(48)
	CALL _glcd_rectangle
;    glcd_rectangle(0,0,84,11);                      // hinh chu nhat bao quanh title
	CALL SUBOPT_0x9
	LDI  R26,LOW(11)
	CALL _glcd_rectangle
;    glcd_rectangle(0,37,26,48);                     // hinh chu nhat bao quanh menu
	LDI  R30,LOW(0)
	ST   -Y,R30
	LDI  R30,LOW(37)
	ST   -Y,R30
	LDI  R30,LOW(26)
	ST   -Y,R30
	LDI  R26,LOW(48)
	CALL _glcd_rectangle
;    glcd_setfont(font5x7);
	CALL SUBOPT_0x7
;    glcd_outtextxy(18,2,"SPRINKLE");
	LDI  R30,LOW(18)
	ST   -Y,R30
	LDI  R30,LOW(2)
	ST   -Y,R30
	__POINTW2MN _0x4C,0
	CALL _glcd_outtextxy
;    glcd_outtextxy(2,39,"Menu");
	LDI  R30,LOW(2)
	ST   -Y,R30
	LDI  R30,LOW(39)
	ST   -Y,R30
	__POINTW2MN _0x4C,9
	CALL _glcd_outtextxy
;    get_relay_status();                             //lay status cua cac role de hien thi
	CALL SUBOPT_0xA
;    glcd_setfont(relay_icon_7x7);
;        for (i = 1; i <= 5; i++) {
_0x4E:
	__CPWRN 16,17,6
	BRGE _0x4F
;            glcd_putcharxy(27 + i * 8, 39, node[i].status); //8: width cua font
	CALL SUBOPT_0xB
;        }
	__ADDWRN 16,17,1
	RJMP _0x4E
_0x4F:
;    glcd_setfont(phone_signal_10x5);                //cot song cua SIM
	LDI  R30,LOW(_phone_signal_10x5*2)
	LDI  R31,HIGH(_phone_signal_10x5*2)
	CALL SUBOPT_0xC
;    //trong file phone_signal_10x5.c co du 6 moc signal strength nhung luc code dong nay sim dang bi loi phan cung nen c ...
;	//co the dung lenh AT+CSQ de check signal strength
;	if (is_sim_init_ok)                             //binh thuong trong ham init_sms co put_command va doi modul SIM tra ve ...
	TST  R7
	BREQ _0x50
;	    glcd_outtextxy(72, 3, "5");                 //khong co song
	LDI  R30,LOW(72)
	ST   -Y,R30
	LDI  R30,LOW(3)
	ST   -Y,R30
	__POINTW2MN _0x4C,14
	RJMP _0x2DF
;	else
_0x50:
;        glcd_outtextxy(72, 3, "0");                 //co song
	LDI  R30,LOW(72)
	ST   -Y,R30
	LDI  R30,LOW(3)
	ST   -Y,R30
	__POINTW2MN _0x4C,16
_0x2DF:
	CALL _glcd_outtextxy
;}
	RJMP _0x216001B
; .FEND

	.DSEG
_0x4C:
	.BYTE 0x12
;void gui_print_time() {

	.CSEG
_gui_print_time:
; .FSTART _gui_print_time
;    int i = 0;
;    rtc_get_time(&hour, &minute, &second);
	CALL SUBOPT_0x8
;	i -> R16,R17
	CALL SUBOPT_0xD
;    rtc_get_date(&week_day, &day, &month, &year);
	LDI  R30,LOW(6)
	LDI  R31,HIGH(6)
	ST   -Y,R31
	ST   -Y,R30
	LDI  R30,LOW(13)
	LDI  R31,HIGH(13)
	ST   -Y,R31
	ST   -Y,R30
	LDI  R30,LOW(12)
	LDI  R31,HIGH(12)
	ST   -Y,R31
	ST   -Y,R30
	LDI  R26,LOW(_year)
	LDI  R27,HIGH(_year)
	CALL _rtc_get_date
;    glcd_setfont(big_letter_10x14);     //font chu to de hien thi gio + phut
	CALL SUBOPT_0xE
;    glcd_outtextxyf(11, BIG_COLON_Y, name_hour[hour]);      //hien thi gio bang so to giua man hinh
	LDI  R30,LOW(11)
	ST   -Y,R30
	LDI  R30,LOW(13)
	ST   -Y,R30
	LDS  R30,_hour
	LDI  R26,LOW(_name_hour)
	LDI  R27,HIGH(_name_hour)
	CALL SUBOPT_0xF
;    glcd_outtextxyf(44, BIG_COLON_Y, name_minute[minute]);  //hien thi phut bang so to giua man hinh
	LDI  R30,LOW(44)
	ST   -Y,R30
	LDI  R30,LOW(13)
	ST   -Y,R30
	LDS  R30,_minute
	LDI  R26,LOW(_name_minute)
	LDI  R27,HIGH(_name_minute)
	CALL SUBOPT_0xF
;    glcd_setfont(tiny_letter);          //font chu nho de hien thi ngay - thang - nam
	LDI  R30,LOW(_tiny_letter*2)
	LDI  R31,HIGH(_tiny_letter*2)
	CALL SUBOPT_0xC
;    glcd_outtextxyf(66, BIG_COLON_Y, name_second[second]);
	LDI  R30,LOW(66)
	ST   -Y,R30
	LDI  R30,LOW(13)
	ST   -Y,R30
	LDS  R30,_second
	LDI  R26,LOW(_name_second)
	LDI  R27,HIGH(_name_second)
	CALL SUBOPT_0xF
;    glcd_outtextxyf(66,22,name_week_day[week_day]);
	LDI  R30,LOW(66)
	ST   -Y,R30
	LDI  R30,LOW(22)
	ST   -Y,R30
	MOV  R30,R6
	LDI  R26,LOW(_name_week_day)
	LDI  R27,HIGH(_name_week_day)
	CALL SUBOPT_0xF
;    glcd_outtextxyf(2, SMALL_COLON_Y, name_month[month]);
	LDI  R30,LOW(2)
	ST   -Y,R30
	LDI  R30,LOW(30)
	ST   -Y,R30
	MOV  R30,R12
	LDI  R26,LOW(_name_month)
	LDI  R27,HIGH(_name_month)
	CALL SUBOPT_0xF
;    glcd_outtext(" ");
	__POINTW2MN _0x52,0
	CALL _glcd_outtext
;    glcd_outtextf(name_day[day]);
	MOV  R30,R13
	LDI  R26,LOW(_name_day)
	LDI  R27,HIGH(_name_day)
	CALL SUBOPT_0x10
;    glcd_outtext(" ");
	__POINTW2MN _0x52,2
	CALL _glcd_outtext
;    glcd_outtextf(name_year[year]);
	LDS  R30,_year
	LDI  R26,LOW(_name_year)
	LDI  R27,HIGH(_name_year)
	CALL SUBOPT_0x10
;    get_relay_status();
	CALL SUBOPT_0xA
;    glcd_setfont(relay_icon_7x7);
;        for (i = 1; i <= 5; i++) {
_0x54:
	__CPWRN 16,17,6
	BRGE _0x55
;            glcd_putcharxy(27 + i * 8, 39, node[i].status); //8: width cua font
	CALL SUBOPT_0xB
;        }
	__ADDWRN 16,17,1
	RJMP _0x54
_0x55:
;}
_0x216001B:
	LD   R16,Y+
	LD   R17,Y+
	RET
; .FEND

	.DSEG
_0x52:
	.BYTE 0x4
;void gui_colon_blink() {

	.CSEG
_gui_colon_blink:
; .FSTART _gui_colon_blink
;    if (blink) {
	TST  R5
	BREQ _0x56
;        glcd_setfont(big_letter_10x14);
	CALL SUBOPT_0xE
;        glcd_outtextxy(BIG_COLON_X, BIG_COLON_Y, ":");
	LDI  R30,LOW(33)
	ST   -Y,R30
	LDI  R30,LOW(13)
	ST   -Y,R30
	__POINTW2MN _0x57,0
	RJMP _0x2E0
;    } else {
_0x56:
;        glcd_setfont(big_letter_10x14);
	CALL SUBOPT_0xE
;        glcd_outtextxy(BIG_COLON_X, BIG_COLON_Y, "="); //vi luc ve font quen ve dau space nen dung tam dau = :v
	LDI  R30,LOW(33)
	ST   -Y,R30
	LDI  R30,LOW(13)
	ST   -Y,R30
	__POINTW2MN _0x57,2
_0x2E0:
	CALL _glcd_outtextxy
;    }
;    blink = !blink;
	MOV  R30,R5
	CALL __LNEGB1
	MOV  R5,R30
;}
	RET
; .FEND

	.DSEG
_0x57:
	.BYTE 0x4
;void gui_set_choice(int co_y, unsigned char *s) {

	.CSEG
_gui_set_choice:
; .FSTART _gui_set_choice
;    char text[14];
;    int i = 0;
;    memset(text,'\0',14);    //sao chep ky tu '\0' vao 14 ky tu dau tien cua chuoi text
	ST   -Y,R27
	ST   -Y,R26
	SBIW R28,14
	CALL SUBOPT_0x8
;	co_y -> Y+18
;	*s -> Y+16
;	text -> Y+2
;	i -> R16,R17
	CALL SUBOPT_0x11
	LDI  R26,LOW(14)
	LDI  R27,0
	CALL _memset
;    while (*s) {             //de khong anh huong den cac chu trong menu dang sau
_0x59:
	LDD  R26,Y+16
	LDD  R27,Y+16+1
	LD   R30,X
	CPI  R30,0
	BREQ _0x5B
;        text[i] = *s;
	CALL SUBOPT_0x12
	LDD  R26,Y+16
	LDD  R27,Y+16+1
	LD   R30,X
	MOVW R26,R0
	ST   X,R30
;        i++;
	__ADDWRN 16,17,1
;        s++;
	LDD  R30,Y+16
	LDD  R31,Y+16+1
	ADIW R30,1
	STD  Y+16,R30
	STD  Y+16+1,R31
;    }
	RJMP _0x59
_0x5B:
;    glcd_outtextxy(x, co_y, text); //dich chuyen dong chon tiep theo cua menu
	ST   -Y,R8
	LDD  R30,Y+19
	ST   -Y,R30
	MOVW R26,R28
	ADIW R26,4
	CALL _glcd_outtextxy
;}
	LDD  R17,Y+1
	LDD  R16,Y+0
	RJMP _0x2160019
; .FEND
;void exe_main_menu(int command) {
_exe_main_menu:
; .FSTART _exe_main_menu
;    switch (command) {
	CALL SUBOPT_0x13
;	command -> Y+0
;    case 1:
	CPI  R30,LOW(0x1)
	LDI  R26,HIGH(0x1)
	CPC  R31,R26
	BRNE _0x5F
;        gui_current_time();
	CALL _gui_current_time
;        return;
	RJMP _0x2160013
;    case 2:
_0x5F:
	CPI  R30,LOW(0x2)
	LDI  R26,HIGH(0x2)
	CPC  R31,R26
	BRNE _0x60
;        gui_choose_relay();
	RCALL _gui_choose_relay
;        return;
	RJMP _0x2160013
;    case 3:
_0x60:
	CPI  R30,LOW(0x3)
	LDI  R26,HIGH(0x3)
	CPC  R31,R26
	BRNE _0x61
;       // is_sim_init_ok = true;
;     //   init_sms();
;      //  init_gprs();
;        return;
	RJMP _0x2160013
;    case 4:
_0x61:
	CPI  R30,LOW(0x4)
	LDI  R26,HIGH(0x4)
	CPC  R31,R26
	BRNE _0x5E
;        gui_gprs_read();
	RCALL _gui_gprs_read
;        return;
	RJMP _0x2160013
;    }
_0x5E:
;}
	RJMP _0x2160013
; .FEND
;void gui_cursor_move(int erase_position) {
_gui_cursor_move:
; .FSTART _gui_cursor_move
;    if (erase_position == 0) {
	CALL SUBOPT_0x13
;	erase_position -> Y+0
	SBIW R30,0
	BRNE _0x63
;        glcd_putcharxy(x - 7,y - NEW_LINE,' ');
	MOV  R30,R8
	SUBI R30,LOW(7)
	ST   -Y,R30
	MOV  R30,R10
	SUBI R30,LOW(8)
	RJMP _0x2E1
;    } else {
_0x63:
;        glcd_putcharxy(x - 7,15 + NEW_LINE * (erase_position - 1), ' ');
	MOV  R30,R8
	SUBI R30,LOW(7)
	ST   -Y,R30
	LDD  R30,Y+1
	SUBI R30,LOW(1)
	LSL  R30
	LSL  R30
	LSL  R30
	SUBI R30,-LOW(15)
_0x2E1:
	ST   -Y,R30
	LDI  R26,LOW(32)
	CALL _glcd_putcharxy
;    }
;    glcd_putcharxy(x - 7, y, '>');
	CALL SUBOPT_0x14
;}
	RJMP _0x2160013
; .FEND
;void gui_main_menu() {
_gui_main_menu:
; .FSTART _gui_main_menu
;    int erase_position = 0;
;    int command;
;     while (1) {
	CALL SUBOPT_0x15
;	erase_position -> R16,R17
;	command -> R18,R19
_0x65:
;        clrscr();
	RCALL _clrscr
;        gui_set_title("MENU");
	__POINTW2MN _0x68,0
	CALL SUBOPT_0x16
;        gui_set_choice(y + NEW_LINE * 0, "Set Time");   //NEW_LINE =8, lan luot cac hang menu cach nhau 8 hang
	__POINTW2MN _0x68,5
	CALL SUBOPT_0x17
;        gui_set_choice(y + NEW_LINE * 1, "Set Node");
	__POINTW2MN _0x68,14
	CALL SUBOPT_0x18
;        gui_set_choice(y + NEW_LINE * 2, "Sim Init");
	__POINTW2MN _0x68,23
	CALL SUBOPT_0x19
;        gui_set_choice(y + NEW_LINE * 3, "Get GPRS");
	__POINTW2MN _0x68,32
	RCALL _gui_set_choice
;        command = 1;
	__GETWRN 18,19,1
;         while (1) {
_0x69:
;            if (btn_enter) {
	SBIC 0x19,3
	RJMP _0x6C
;                while(btn_enter);
_0x6D:
	SBIS 0x19,3
	RJMP _0x6D
;                exe_main_menu(command);
	MOVW R26,R18
	RCALL _exe_main_menu
;                break;
	RJMP _0x6B
;            }
;            if (btn_back) {     //next menu when press back button
_0x6C:
	SBIC 0x19,4
	RJMP _0x70
;                while(btn_back);
_0x71:
	SBIS 0x19,4
	RJMP _0x71
;                command++;                  //increase command
	CALL SUBOPT_0x1A
;                y += NEW_LINE;              //next menu
;                if (command > 4) {          //total 4 command, if lager 4 will return first command
	BRLT _0x74
;                    erase_position  =   4;
	CALL SUBOPT_0x1B
;                    command         =   1;
;                    y               =   15;
;                }
;                gui_cursor_move(erase_position);  //move cursor when press back button
_0x74:
	CALL SUBOPT_0x1C
;                erase_position      =   0;
;            }
;            if (btn_menu) {      //show start screen when press menu button
_0x70:
	SBIC 0x19,5
	RJMP _0x75
;                while (btn_menu);
_0x76:
	SBIS 0x19,5
	RJMP _0x76
;                gui_init();
	CALL SUBOPT_0x1D
;                is_show_clock = true;
;
;                return;
	RJMP _0x216001A
;            }
;         }
_0x75:
	RJMP _0x69
_0x6B:
;     }
	RJMP _0x65
;}
_0x216001A:
	CALL __LOADLOCR4
	ADIW R28,4
	RET
; .FEND

	.DSEG
_0x68:
	.BYTE 0x29
;void gui_set_title(unsigned char *s) {

	.CSEG
_gui_set_title:
; .FSTART _gui_set_title
;    char title[14];
;    int i = 0, co_x;
;    memset(title,'\0',14);
	ST   -Y,R27
	ST   -Y,R26
	SBIW R28,14
	CALL SUBOPT_0x15
;	*s -> Y+18
;	title -> Y+4
;	i -> R16,R17
;	co_x -> R18,R19
	CALL SUBOPT_0x1E
	LDI  R26,LOW(14)
	LDI  R27,0
	CALL _memset
;    while (*s) {
_0x79:
	LDD  R26,Y+18
	LDD  R27,Y+18+1
	LD   R30,X
	CPI  R30,0
	BREQ _0x7B
;        title[i] = *s;
	CALL SUBOPT_0x1F
	LDD  R26,Y+18
	LDD  R27,Y+18+1
	LD   R30,X
	MOVW R26,R0
	ST   X,R30
;        i++;
	__ADDWRN 16,17,1
;        s++;
	LDD  R30,Y+18
	LDD  R31,Y+18+1
	ADIW R30,1
	STD  Y+18,R30
	STD  Y+18+1,R31
;    }
	RJMP _0x79
_0x7B:
;    co_x = (84 - i*6)/2;
	MOVW R30,R16
	LDI  R26,LOW(6)
	LDI  R27,HIGH(6)
	CALL __MULW12
	LDI  R26,LOW(84)
	LDI  R27,HIGH(84)
	SUB  R26,R30
	SBC  R27,R31
	LDI  R30,LOW(2)
	LDI  R31,HIGH(2)
	CALL __DIVW21
	MOVW R18,R30
;    glcd_outtextxy(co_x, 2, title);
	ST   -Y,R18
	LDI  R30,LOW(2)
	ST   -Y,R30
	MOVW R26,R28
	ADIW R26,6
	CALL _glcd_outtextxy
;    glcd_line(0,10,84,10);
	CALL SUBOPT_0x20
	LDI  R30,LOW(84)
	ST   -Y,R30
	LDI  R26,LOW(10)
	CALL _glcd_line
;    glcd_rectangle(0,0,84,48);
	CALL SUBOPT_0x9
	LDI  R26,LOW(48)
	CALL _glcd_rectangle
;    y = 15;
	LDI  R30,LOW(15)
	LDI  R31,HIGH(15)
	MOVW R10,R30
;    x = 10;
	LDI  R30,LOW(10)
	LDI  R31,HIGH(10)
	MOVW R8,R30
;    glcd_putcharxy(x - 7,y,'>');
	CALL SUBOPT_0x14
;}
	CALL __LOADLOCR4
_0x2160019:
	ADIW R28,20
	RET
; .FEND
;void gui_gprs_read() {
_gui_gprs_read:
; .FSTART _gui_gprs_read
;    clrscr();
	RCALL _clrscr
;    gui_set_title("Website CMD ");
	__POINTW2MN _0x7C,0
	RCALL _gui_set_title
;    glcd_putcharxy(x - 7,y,' '); //xoa dau >
	CALL SUBOPT_0x21
;   //gprs_read();
;    while (1) {
_0x7D:
;        if (btn_menu) {
	SBIC 0x19,5
	RJMP _0x80
;            while (btn_menu);
_0x81:
	SBIS 0x19,5
	RJMP _0x81
;            return;
	RET
;        }
;    }
_0x80:
	RJMP _0x7D
;}
; .FEND

	.DSEG
_0x7C:
	.BYTE 0xD
;void node_info_examine(station_info station_receive) {

	.CSEG
_node_info_examine:
; .FSTART _node_info_examine
;//if ((station_receive.light < 70)&&(station_receive.sm < 20)) {
;if (station_receive.light < 70) {
;	station_receive -> Y+0
	LDD  R26,Y+2
	LDD  R27,Y+2+1
	CPI  R26,LOW(0x46)
	LDI  R30,HIGH(0x46)
	CPC  R27,R30
	BRGE _0x84
;
;		switch (station_receive.flag) {
	LD   R30,Y
	LDD  R31,Y+1
;			case 1:
	CPI  R30,LOW(0x1)
	LDI  R26,HIGH(0x1)
	CPC  R31,R26
	BRNE _0x88
;	            relay_1                 =   ON;
	CALL SUBOPT_0x22
;	            node[1].status          =   ON;
;	            node[1].alarm_time_m    =   1;
	RJMP _0x2E2
;        	break;
;	        case 2:
_0x88:
	CPI  R30,LOW(0x2)
	LDI  R26,HIGH(0x2)
	CPC  R31,R26
	BRNE _0x8B
;	            relay_2                 =   ON;
	CALL SUBOPT_0x23
;	            node[2].status          =   ON;
;	            node[2].alarm_time_m    =   1;
	RJMP _0x2E2
;	        break;
;	        case 3:
_0x8B:
	CPI  R30,LOW(0x3)
	LDI  R26,HIGH(0x3)
	CPC  R31,R26
	BRNE _0x8E
;	            relay_3                 =   ON;
	CALL SUBOPT_0x24
;	            node[3].status          =   ON;
;	            node[3].alarm_time_m    =   1;
	RJMP _0x2E2
;	        break;
;	        case 4:
_0x8E:
	CPI  R30,LOW(0x4)
	LDI  R26,HIGH(0x4)
	CPC  R31,R26
	BRNE _0x91
;	            relay_4                 =   ON;
	CALL SUBOPT_0x25
;	            node[4].status          =   ON;
;	            node[4].alarm_time_m    =   1;
	RJMP _0x2E2
;	        break;
;	        case 5:
_0x91:
	CPI  R30,LOW(0x5)
	LDI  R26,HIGH(0x5)
	CPC  R31,R26
	BRNE _0x87
;	            relay_5                 =   ON;
	CALL SUBOPT_0x26
;	            node[5].status          =   ON;
;	            node[5].alarm_time_m    =   1;
_0x2E2:
	LDI  R30,LOW(1)
	LDI  R31,HIGH(1)
	CALL __EEPROMWRW
;	        break;
;		}
_0x87:
;	}
;}
_0x84:
	ADIW R28,12
	RET
; .FEND
;#include <sim_uart1_init.c>
;unsigned char phone_number[13] = "+84983712941";

	.DSEG
;unsigned char sim = 0;   //0 la sim vietnam mobile, 1 la sim viettel
;unsigned char money_code[20];
;char money[10];
;bool is_get_money = false;
;char final[10]="em";
;
;char ahi[]="fgvjhjbhgndxfcid=69#{'lenh':'*1off#'}{'lenh':'*2off#'}{'lenh':'*3on8#'}{'lenh':'*4on15#'} ";
;int p4=-1,dem4,a4,p3=-1,dem3,a3,p2=-1,dem2,a2,p1=-1,dem1,a1;
;int search                             ( char nguon[], char *dau);
;
;
;void put_string                         (unsigned char *s);
;void put_command                        (unsigned char *s, int time_out_ms, int max_retry);
;void sms_read                           ();
;bool read_command                       (unsigned char *s);
;bool wait_until                         (unsigned char *s, int time_out_ms);
;void clear_buffer                       ();
;void decrypt                            (unsigned char *s);
;void toggle_relay                       (bool status, unsigned char *s);
;void sms_send                           (unsigned char *s);
;
;void init_sms                           ();
;void init_gprs                          ();
;void gprs_read                          ();
;void gprs_send                          ();
;void get_money_request                  ();
;void call                               ();
;void get_money_response_vietnammobile   ();
;void get_money_response_viettel         ();
;void put_money                          ();
;
;const int   BUFFER_SIZE         =   500,
;            DEFAULT_MAX_RETRY   =   5,
;            DEFAULT_TIME_OUT_MS =   50;
;
;int buffer_index = 0;
;char receive_buffer[BUFFER_SIZE];
;// USART1 Receiver buffer
;#define RX_BUFFER_SIZE1 64
;char rx_buffer1[RX_BUFFER_SIZE1];
;
;#if RX_BUFFER_SIZE1 <= 256
;    unsigned char rx_wr_index1=0,rx_rd_index1=0;
;#else
;    unsigned int rx_wr_index1=0,rx_rd_index1=0;
;#endif
;
;#if RX_BUFFER_SIZE1 < 256
;    unsigned char rx_counter1=0;
;#else
;    unsigned int rx_counter1=0;
;#endif
;
;// This flag is set on USART1 Receiver buffer overflow
;bit rx_buffer_overflow1;
;
;// USART1 Receiver interrupt service routine
;interrupt [USART1_RXC] void usart1_rx_isr(void) {
; 0000 001E interrupt [31] void usart1_rx_isr(void) {

	.CSEG
_usart1_rx_isr:
; .FSTART _usart1_rx_isr
	CALL SUBOPT_0x27
;    char status,data;
;    status=UCSR1A;
	ST   -Y,R17
	ST   -Y,R16
;	status -> R17
;	data -> R16
	LDS  R17,155
;    data=UDR1;
	LDS  R16,156
;
;    if ((status & (FRAMING_ERROR | PARITY_ERROR | DATA_OVERRUN))==0) {
	MOV  R30,R17
	ANDI R30,LOW(0x1C)
	BRNE _0x9E
;        rx_buffer1[rx_wr_index1++]=data;
	LDS  R30,_rx_wr_index1
	SUBI R30,-LOW(1)
	STS  _rx_wr_index1,R30
	SUBI R30,LOW(1)
	LDI  R31,0
	SUBI R30,LOW(-_rx_buffer1)
	SBCI R31,HIGH(-_rx_buffer1)
	ST   Z,R16
;        #if RX_BUFFER_SIZE1 == 256
;        // special case for receiver buffer size=256
;            if (++rx_counter1 == 0) rx_buffer_overflow1=1;
;        #else
;            if (rx_wr_index1 == RX_BUFFER_SIZE1) rx_wr_index1=0;
	LDS  R26,_rx_wr_index1
	CPI  R26,LOW(0x40)
	BRNE _0x9F
	LDI  R30,LOW(0)
	STS  _rx_wr_index1,R30
;            if (++rx_counter1 == RX_BUFFER_SIZE1) {
_0x9F:
	LDS  R26,_rx_counter1
	SUBI R26,-LOW(1)
	STS  _rx_counter1,R26
	CPI  R26,LOW(0x40)
	BRNE _0xA0
;                rx_counter1=0;
	LDI  R30,LOW(0)
	STS  _rx_counter1,R30
;                rx_buffer_overflow1=1;
	SET
	BLD  R2,0
;            }
;        #endif
;    }
_0xA0:
;
;    receive_buffer[buffer_index] = data;
_0x9E:
	LDS  R30,_buffer_index
	LDS  R31,_buffer_index+1
	SUBI R30,LOW(-_receive_buffer)
	SBCI R31,HIGH(-_receive_buffer)
	ST   Z,R16
;    if (read_command("CMTI")) sms_read();
	__POINTW2MN _0xA2,0
	RCALL _read_command
	CPI  R30,0
	BREQ _0xA1
	RCALL _sms_read
;    if (buffer_index == BUFFER_SIZE) buffer_index = 0;
_0xA1:
	LDS  R26,_buffer_index
	LDS  R27,_buffer_index+1
	CPI  R26,LOW(0x1F4)
	LDI  R30,HIGH(0x1F4)
	CPC  R27,R30
	BRNE _0xA3
	LDI  R30,LOW(0)
	STS  _buffer_index,R30
	STS  _buffer_index+1,R30
;    buffer_index++;
_0xA3:
	LDI  R26,LOW(_buffer_index)
	LDI  R27,HIGH(_buffer_index)
	CALL SUBOPT_0x28
;}
	LD   R16,Y+
	LD   R17,Y+
	CALL SUBOPT_0x29
	RETI
; .FEND

	.DSEG
_0xA2:
	.BYTE 0x5
;
;// Get a character from the USART1 Receiver buffer
;#pragma used+
;    char getchar1(void) {

	.CSEG
;        char data;
;        while (rx_counter1==0);
;	data -> R17
;        data=rx_buffer1[rx_rd_index1++];
;    #if RX_BUFFER_SIZE1 != 256
;        if (rx_rd_index1 == RX_BUFFER_SIZE1) rx_rd_index1=0;
;    #endif
;    #asm("cli")
;        --rx_counter1;
;    #asm("sei")
;        return data;
;    }
;#pragma used-
;// USART1 Transmitter buffer
;#define TX_BUFFER_SIZE1 64
;char tx_buffer1[TX_BUFFER_SIZE1];
;
;#if TX_BUFFER_SIZE1 <= 256
;unsigned char tx_wr_index1=0,tx_rd_index1=0;
;#else
;unsigned int tx_wr_index1=0,tx_rd_index1=0;
;#endif
;
;#if TX_BUFFER_SIZE1 < 256
;unsigned char tx_counter1=0;
;#else
;unsigned int tx_counter1=0;
;#endif
;
;// USART1 Transmitter interrupt service routine
;interrupt [USART1_TXC] void usart1_tx_isr(void) {
_usart1_tx_isr:
; .FSTART _usart1_tx_isr
	ST   -Y,R26
	ST   -Y,R30
	ST   -Y,R31
	IN   R30,SREG
	ST   -Y,R30
;    if (tx_counter1) {
	LDS  R30,_tx_counter1
	CPI  R30,0
	BREQ _0xA8
;        --tx_counter1;
	SUBI R30,LOW(1)
	STS  _tx_counter1,R30
;        UDR1=tx_buffer1[tx_rd_index1++];
	LDS  R30,_tx_rd_index1
	SUBI R30,-LOW(1)
	STS  _tx_rd_index1,R30
	SUBI R30,LOW(1)
	LDI  R31,0
	SUBI R30,LOW(-_tx_buffer1)
	SBCI R31,HIGH(-_tx_buffer1)
	LD   R30,Z
	STS  156,R30
;#if TX_BUFFER_SIZE1 != 256
;        if (tx_rd_index1 == TX_BUFFER_SIZE1) tx_rd_index1=0;
	LDS  R26,_tx_rd_index1
	CPI  R26,LOW(0x40)
	BRNE _0xA9
	LDI  R30,LOW(0)
	STS  _tx_rd_index1,R30
;#endif
;    }
_0xA9:
;}
_0xA8:
	LD   R30,Y+
	OUT  SREG,R30
	LD   R31,Y+
	LD   R30,Y+
	LD   R26,Y+
	RETI
; .FEND
;
;// Write a character to the USART1 Transmitter buffer
;#pragma used+
;void putchar1(char c) {
_putchar1:
; .FSTART _putchar1
;    while (tx_counter1 == TX_BUFFER_SIZE1);
	ST   -Y,R26
;	c -> Y+0
_0xAA:
	LDS  R26,_tx_counter1
	CPI  R26,LOW(0x40)
	BREQ _0xAA
;#asm("cli")
	cli
;    if (tx_counter1 || ((UCSR1A & DATA_REGISTER_EMPTY)==0)) {
	LDS  R30,_tx_counter1
	CPI  R30,0
	BRNE _0xAE
	LDS  R30,155
	ANDI R30,LOW(0x20)
	BRNE _0xAD
_0xAE:
;        tx_buffer1[tx_wr_index1++]=c;
	LDS  R30,_tx_wr_index1
	SUBI R30,-LOW(1)
	STS  _tx_wr_index1,R30
	SUBI R30,LOW(1)
	LDI  R31,0
	SUBI R30,LOW(-_tx_buffer1)
	SBCI R31,HIGH(-_tx_buffer1)
	LD   R26,Y
	STD  Z+0,R26
;#if TX_BUFFER_SIZE1 != 256
;        if (tx_wr_index1 == TX_BUFFER_SIZE1) tx_wr_index1=0;
	LDS  R26,_tx_wr_index1
	CPI  R26,LOW(0x40)
	BRNE _0xB0
	LDI  R30,LOW(0)
	STS  _tx_wr_index1,R30
;#endif
;        ++tx_counter1;
_0xB0:
	LDS  R30,_tx_counter1
	SUBI R30,-LOW(1)
	STS  _tx_counter1,R30
;    } else
	RJMP _0xB1
_0xAD:
;        UDR1=c;
	LD   R30,Y
	STS  156,R30
;#asm("sei")
_0xB1:
	sei
;}
_0x2160018:
	ADIW R28,1
	RET
; .FEND
;#pragma used-
;
;void put_string(unsigned char *s) {
_put_string:
; .FSTART _put_string
;    while (*s) {
	ST   -Y,R27
	ST   -Y,R26
;	*s -> Y+0
_0xB2:
	LD   R26,Y
	LDD  R27,Y+1
	LD   R30,X
	CPI  R30,0
	BREQ _0xB4
;        putchar1(*s);
	LD   R26,X
	RCALL _putchar1
;        delay_ms(50);
	LDI  R26,LOW(50)
	LDI  R27,0
	CALL _delay_ms
;        s++;
	LD   R30,Y
	LDD  R31,Y+1
	ADIW R30,1
	ST   Y,R30
	STD  Y+1,R31
;    }
	RJMP _0xB2
_0xB4:
;}
	RJMP _0x2160013
; .FEND
;
;void put_command(unsigned char *s, int time_out_ms, int max_retry) {
_put_command:
; .FSTART _put_command
;    char    command[50];
;    int     i       =   0;
;
;    memset(command,'\0',50);
	ST   -Y,R27
	ST   -Y,R26
	SBIW R28,50
	CALL SUBOPT_0x8
;	*s -> Y+56
;	time_out_ms -> Y+54
;	max_retry -> Y+52
;	command -> Y+2
;	i -> R16,R17
	CALL SUBOPT_0x11
	LDI  R26,LOW(50)
	LDI  R27,0
	CALL _memset
;    while (*s) {
_0xB5:
	LDD  R26,Y+56
	LDD  R27,Y+56+1
	LD   R30,X
	CPI  R30,0
	BREQ _0xB7
;        command[i] = *s;
	CALL SUBOPT_0x12
	LDD  R26,Y+56
	LDD  R27,Y+56+1
	LD   R30,X
	MOVW R26,R0
	ST   X,R30
;        s++;
	LDD  R30,Y+56
	LDD  R31,Y+56+1
	ADIW R30,1
	STD  Y+56,R30
	STD  Y+56+1,R31
;        i++;
	__ADDWRN 16,17,1
;    }
	RJMP _0xB5
_0xB7:
;    for (i = 0; i < max_retry; i++) {
	__GETWRN 16,17,0
_0xB9:
	LDD  R30,Y+52
	LDD  R31,Y+52+1
	CP   R16,R30
	CPC  R17,R31
	BRGE _0xBA
;        put_string(command);
	MOVW R26,R28
	ADIW R26,2
	RCALL _put_string
;        if (wait_until("OK", time_out_ms)) return; //neu khong tra ve "OK" thi lap lai
	__POINTW1MN _0xBC,0
	ST   -Y,R31
	ST   -Y,R30
	LDD  R26,Y+56
	LDD  R27,Y+56+1
	RCALL _wait_until
	CPI  R30,0
	BRNE _0x2160017
;    }
	__ADDWRN 16,17,1
	RJMP _0xB9
_0xBA:
;
;    is_sim_init_ok = false;
	CLR  R7
;    return;
_0x2160017:
	LDD  R17,Y+1
	LDD  R16,Y+0
	ADIW R28,58
	RET
;}
; .FEND

	.DSEG
_0xBC:
	.BYTE 0x3
;
;bool wait_until(unsigned char *s, int time_out_ms) {

	.CSEG
_wait_until:
; .FSTART _wait_until
;    char keyword[20];
;    int i               =   0,
;        time_start_ms   =   milisec;
;
;    memset(keyword,'\0',20);
	ST   -Y,R27
	ST   -Y,R26
	SBIW R28,20
	CALL SUBOPT_0x15
;	*s -> Y+26
;	time_out_ms -> Y+24
;	keyword -> Y+4
;	i -> R16,R17
;	time_start_ms -> R18,R19
	__GETWRMN 18,19,0,_milisec
	CALL SUBOPT_0x1E
	LDI  R26,LOW(20)
	LDI  R27,0
	CALL _memset
;    while (*s) {
_0xBD:
	LDD  R26,Y+26
	LDD  R27,Y+26+1
	LD   R30,X
	CPI  R30,0
	BREQ _0xBF
;        keyword[i] = *s;
	CALL SUBOPT_0x1F
	LDD  R26,Y+26
	LDD  R27,Y+26+1
	LD   R30,X
	MOVW R26,R0
	ST   X,R30
;        s++;
	LDD  R30,Y+26
	LDD  R31,Y+26+1
	ADIW R30,1
	STD  Y+26,R30
	STD  Y+26+1,R31
;        i++;
	__ADDWRN 16,17,1
;    }
	RJMP _0xBD
_0xBF:
;
;    while (milisec - time_start_ms < time_out_ms) {
_0xC0:
	MOVW R30,R18
	CALL SUBOPT_0x2A
	CALL __CWD1
	CALL __SUBD21
	LDD  R30,Y+24
	LDD  R31,Y+24+1
	CALL __CWD1
	CALL __CPD21
	BRSH _0xC2
;        if (strstr(receive_buffer, keyword)) {
	LDI  R30,LOW(_receive_buffer)
	LDI  R31,HIGH(_receive_buffer)
	ST   -Y,R31
	ST   -Y,R30
	MOVW R26,R28
	ADIW R26,6
	CALL _strstr
	SBIW R30,0
	BREQ _0xC3
;            return true;
	LDI  R30,LOW(1)
	RJMP _0x2160016
;        }
;    }
_0xC3:
	RJMP _0xC0
_0xC2:
;
;    return false;
	LDI  R30,LOW(0)
_0x2160016:
	CALL __LOADLOCR4
	ADIW R28,28
	RET
;}
; .FEND
;
;bool read_command(unsigned char *s) {
_read_command:
; .FSTART _read_command
;    char command[4];
;    int i               =   0;
;    memset(command,'\0',4);
	ST   -Y,R27
	ST   -Y,R26
	SBIW R28,4
	CALL SUBOPT_0x8
;	*s -> Y+6
;	command -> Y+2
;	i -> R16,R17
	CALL SUBOPT_0x11
	LDI  R26,LOW(4)
	LDI  R27,0
	CALL _memset
;
;    while (*s) {
_0xC4:
	LDD  R26,Y+6
	LDD  R27,Y+6+1
	LD   R30,X
	CPI  R30,0
	BREQ _0xC6
;        command[i] = *s;
	CALL SUBOPT_0x12
	LDD  R26,Y+6
	LDD  R27,Y+6+1
	CALL SUBOPT_0x2B
;        s++;
;        i++;
	__ADDWRN 16,17,1
;    }
	RJMP _0xC4
_0xC6:
;
;    for (i = 0; i < 4; i++) {
	__GETWRN 16,17,0
_0xC8:
	__CPWRN 16,17,4
	BRGE _0xC9
;        if (command[3 - i] != receive_buffer[buffer_index - i]) return false;
	LDI  R30,LOW(3)
	LDI  R31,HIGH(3)
	SUB  R30,R16
	SBC  R31,R17
	MOVW R26,R28
	ADIW R26,2
	ADD  R26,R30
	ADC  R27,R31
	LD   R26,X
	LDS  R30,_buffer_index
	LDS  R31,_buffer_index+1
	SUB  R30,R16
	SBC  R31,R17
	SUBI R30,LOW(-_receive_buffer)
	SBCI R31,HIGH(-_receive_buffer)
	LD   R30,Z
	CP   R30,R26
	BREQ _0xCA
	LDI  R30,LOW(0)
	RJMP _0x2160015
;    }
_0xCA:
	__ADDWRN 16,17,1
	RJMP _0xC8
_0xC9:
;
;    return true;
	LDI  R30,LOW(1)
_0x2160015:
	LDD  R17,Y+1
	LDD  R16,Y+0
	ADIW R28,8
	RET
;}
; .FEND
;
;
;void clear_buffer() {
_clear_buffer:
; .FSTART _clear_buffer
;    memset(receive_buffer, '\0', BUFFER_SIZE);
	LDI  R30,LOW(_receive_buffer)
	LDI  R31,HIGH(_receive_buffer)
	CALL SUBOPT_0x2C
	LDI  R26,LOW(500)
	LDI  R27,HIGH(500)
	CALL _memset
;    buffer_index = 0;
	LDI  R30,LOW(0)
	STS  _buffer_index,R30
	STS  _buffer_index+1,R30
;}
	RET
; .FEND
;
;void init_gprs() {
_init_gprs:
; .FSTART _init_gprs
;    put_command("AT+CIPMODE=0\n\r", DEFAULT_TIME_OUT_MS, DEFAULT_MAX_RETRY);
	__POINTW1MN _0xCB,0
	CALL SUBOPT_0x2D
;
;    put_command("AT+CIPCSGP=1,\"internet\",\"\",\"\"\n\r", DEFAULT_TIME_OUT_MS, DEFAULT_MAX_RETRY);
	__POINTW1MN _0xCB,15
	CALL SUBOPT_0x2D
;
;    put_command("AT+CIPHEAD=0\n\r", DEFAULT_TIME_OUT_MS, DEFAULT_MAX_RETRY);
	__POINTW1MN _0xCB,47
	CALL SUBOPT_0x2D
;
;    put_command("AT+CIPSPRT=1\n\r", DEFAULT_TIME_OUT_MS, DEFAULT_MAX_RETRY);
	__POINTW1MN _0xCB,62
	CALL SUBOPT_0x2D
;
;    put_command("AT+CIPSRIP=0\n\r", DEFAULT_TIME_OUT_MS, DEFAULT_MAX_RETRY);
	__POINTW1MN _0xCB,77
	CALL SUBOPT_0x2D
;
;    put_command("AT+CIPSCONT\n\r", DEFAULT_TIME_OUT_MS, DEFAULT_MAX_RETRY);
	__POINTW1MN _0xCB,92
	CALL SUBOPT_0x2D
;
;    put_command("AT+CIPMUX=0\n\r", DEFAULT_TIME_OUT_MS, DEFAULT_MAX_RETRY);
	__POINTW1MN _0xCB,106
	RJMP _0x2160014
;
;}
; .FEND

	.DSEG
_0xCB:
	.BYTE 0x78
;
;/*void init_gprs_m() {
;    put_command("AT+CIPSHUT\n\r", DEFAULT_TIME_OUT_MS, DEFAULT_MAX_RETRY);
;    put_command("AT+CIPMUX=0\n\r", DEFAULT_TIME_OUT_MS, DEFAULT_MAX_RETRY);
;    put_command("AT+CSTT= \"internet\", \"\", \"\" \n\r", DEFAULT_TIME_OUT_MS, DEFAULT_MAX_RETRY);
;    put_command("AT+CIICR\n\r", DEFAULT_TIME_OUT_MS, DEFAULT_MAX_RETRY);
;    put_command("AT+CGATT?\n\r", DEFAULT_TIME_OUT_MS, DEFAULT_MAX_RETRY);
;    put_command("AT+CIFSR\n\r", DEFAULT_TIME_OUT_MS, DEFAULT_MAX_RETRY);
;}  */
;void init_sms() {

	.CSEG
_init_sms:
; .FSTART _init_sms
;    put_command("AT+CCALR?\n\r", DEFAULT_TIME_OUT_MS, DEFAULT_MAX_RETRY);
	__POINTW1MN _0xCC,0
	CALL SUBOPT_0x2D
;
;    put_command("ATE0\n\r", DEFAULT_TIME_OUT_MS, DEFAULT_MAX_RETRY);
	__POINTW1MN _0xCC,12
	CALL SUBOPT_0x2D
;
;    put_command("AT+CMGF=1\n\r", DEFAULT_TIME_OUT_MS, DEFAULT_MAX_RETRY);
	__POINTW1MN _0xCC,19
	CALL SUBOPT_0x2D
;
;    put_command("AT+CNMI=2,1,0,0,0\n\r", DEFAULT_TIME_OUT_MS, DEFAULT_MAX_RETRY);
	__POINTW1MN _0xCC,31
	CALL SUBOPT_0x2D
;
;    put_command("AT+CSAS\n\r", DEFAULT_TIME_OUT_MS, DEFAULT_MAX_RETRY);
	__POINTW1MN _0xCC,51
	CALL SUBOPT_0x2D
;
;    put_command("AT+CMGD=1\n\r", DEFAULT_TIME_OUT_MS, DEFAULT_MAX_RETRY);
	__POINTW1MN _0xCC,61
_0x2160014:
	ST   -Y,R31
	ST   -Y,R30
	LDI  R30,LOW(50)
	LDI  R31,HIGH(50)
	ST   -Y,R31
	ST   -Y,R30
	LDI  R26,LOW(5)
	LDI  R27,HIGH(5)
	RCALL _put_command
;}
	RET
; .FEND

	.DSEG
_0xCC:
	.BYTE 0x49
;
;
;void sms_read() {

	.CSEG
_sms_read:
; .FSTART _sms_read
;    int i = 0, j = 0, quote_count = 0;
;    char    command[10],
;            phone_number[13];
;    const int QUOTES_BEFORE_PHONE_NUMBER = 3;
;
;    memset(command, '\0', 10);
	SBIW R28,25
	LDI  R30,LOW(3)
	ST   Y,R30
	LDI  R30,LOW(0)
	STD  Y+1,R30
	CALL __SAVELOCR6
;	i -> R16,R17
;	j -> R18,R19
;	quote_count -> R20,R21
;	command -> Y+21
;	phone_number -> Y+8
;	QUOTES_BEFORE_PHONE_NUMBER -> Y+6
	__GETWRN 16,17,0
	__GETWRN 18,19,0
	__GETWRN 20,21,0
	CALL SUBOPT_0x2E
	CALL SUBOPT_0x2F
;
;    clear_buffer();
	RCALL _clear_buffer
;
;    is_show_clock = false;
	CLR  R4
;    glcd_setfont(font5x7);
	CALL SUBOPT_0x7
;    glcd_clear();
	CALL _glcd_clear
;    glcd_outtextxy(10,0,"Got new SMS\n");
	LDI  R30,LOW(10)
	ST   -Y,R30
	LDI  R30,LOW(0)
	ST   -Y,R30
	__POINTW2MN _0xCD,0
	CALL _glcd_outtextxy
;
;    put_command("AT+CMGR=1\n\r", DEFAULT_TIME_OUT_MS, DEFAULT_MAX_RETRY);
	__POINTW1MN _0xCD,13
	CALL SUBOPT_0x2D
;
;    put_command("AT+CMGD=1\n\r", DEFAULT_TIME_OUT_MS, DEFAULT_MAX_RETRY);
	__POINTW1MN _0xCD,25
	CALL SUBOPT_0x2D
;
;    for (i = 0; receive_buffer[i] != '\0'; i++) {
	__GETWRN 16,17,0
_0xCF:
	CALL SUBOPT_0x30
	LD   R30,X
	CPI  R30,0
	BRNE PC+2
	RJMP _0xD0
;        if (receive_buffer[i] == '\"') {
	CALL SUBOPT_0x30
	LD   R26,X
	CPI  R26,LOW(0x22)
	BRNE _0xD1
;            quote_count++;
	__ADDWRN 20,21,1
;            j = 0;
	__GETWRN 18,19,0
;            continue;
	RJMP _0xCE
;        }
;        if (quote_count == QUOTES_BEFORE_PHONE_NUMBER) {
_0xD1:
	LDI  R30,LOW(3)
	LDI  R31,HIGH(3)
	CP   R30,R20
	CPC  R31,R21
	BRNE _0xD2
;            phone_number[j++] = receive_buffer[i];
	MOVW R30,R18
	__ADDWRN 18,19,1
	MOVW R26,R28
	ADIW R26,8
	ADD  R30,R26
	ADC  R31,R27
	MOVW R0,R30
	CALL SUBOPT_0x30
	LD   R30,X
	MOVW R26,R0
	ST   X,R30
;        }
;        if (receive_buffer[i] == '*') {
_0xD2:
	CALL SUBOPT_0x30
	LD   R26,X
	CPI  R26,LOW(0x2A)
	BRNE _0xD3
;            j = 0;
	__GETWRN 18,19,0
;            while(receive_buffer[i - 1] != '#') {
_0xD4:
	MOVW R30,R16
	SBIW R30,1
	SUBI R30,LOW(-_receive_buffer)
	SBCI R31,HIGH(-_receive_buffer)
	LD   R26,Z
	CPI  R26,LOW(0x23)
	BREQ _0xD6
;                command[j++] = receive_buffer[i++];
	MOVW R30,R18
	__ADDWRN 18,19,1
	MOVW R26,R28
	ADIW R26,21
	ADD  R26,R30
	ADC  R27,R31
	MOVW R30,R16
	__ADDWRN 16,17,1
	SUBI R30,LOW(-_receive_buffer)
	SBCI R31,HIGH(-_receive_buffer)
	LD   R30,Z
	ST   X,R30
;                if ((receive_buffer[i] == '\r') && (receive_buffer[i+1] == '\n')) break; //co ve dong nay bo di cung kho ...
	CALL SUBOPT_0x30
	LD   R26,X
	CPI  R26,LOW(0xD)
	BRNE _0xD8
	MOVW R30,R16
	__ADDW1MN _receive_buffer,1
	LD   R26,Z
	CPI  R26,LOW(0xA)
	BREQ _0xD9
_0xD8:
	RJMP _0xD7
_0xD9:
	RJMP _0xD6
;            }
_0xD7:
	RJMP _0xD4
_0xD6:
;            decrypt(command);
	MOVW R26,R28
	ADIW R26,21
	RCALL _decrypt
;            memset(command, '\0', 10);
	CALL SUBOPT_0x2E
	CALL SUBOPT_0x2F
;            break;
	RJMP _0xD0
;        }
;    }
_0xD3:
_0xCE:
	__ADDWRN 16,17,1
	RJMP _0xCF
_0xD0:
;    glcd_outtextxy(0,10,phone_number);
	CALL SUBOPT_0x20
	MOVW R26,R28
	ADIW R26,10
	CALL _glcd_outtextxy
;    glcd_outtextxy(0,20,command);
	LDI  R30,LOW(0)
	ST   -Y,R30
	LDI  R30,LOW(20)
	ST   -Y,R30
	MOVW R26,R28
	ADIW R26,23
	CALL _glcd_outtextxy
;    memset(command, '\0', 10);
	CALL SUBOPT_0x2E
	CALL SUBOPT_0x2F
;    delay_ms(2000);
	CALL SUBOPT_0x31
;    clear_buffer();
	CALL SUBOPT_0x32
;    glcd_clear();
;    gui_init();
	CALL SUBOPT_0x1D
;    is_show_clock = true;
;    clear_buffer();
	RCALL _clear_buffer
;}
	CALL __LOADLOCR6
	ADIW R28,31
	RET
; .FEND

	.DSEG
_0xCD:
	.BYTE 0x25
;
;void sms_send(unsigned char *s) {

	.CSEG
_sms_send:
; .FSTART _sms_send
;    is_show_clock = false;
	ST   -Y,R27
	ST   -Y,R26
;	*s -> Y+0
	CLR  R4
;    glcd_setfont(font5x7);
	CALL SUBOPT_0x7
;    glcd_clear();
	CALL _glcd_clear
;    glcd_outtextxy(0,0,"Sending SMS...\n");
	LDI  R30,LOW(0)
	ST   -Y,R30
	ST   -Y,R30
	__POINTW2MN _0xDA,0
	CALL _glcd_outtextxy
;    put_command("AT+CMGF=1\r\n", DEFAULT_TIME_OUT_MS, DEFAULT_MAX_RETRY);
	__POINTW1MN _0xDA,16
	CALL SUBOPT_0x2D
;    wait_until("OK", 2000);
	__POINTW1MN _0xDA,28
	ST   -Y,R31
	ST   -Y,R30
	LDI  R26,LOW(2000)
	LDI  R27,HIGH(2000)
	RCALL _wait_until
;    put_string("AT+CMGS=");
	__POINTW2MN _0xDA,31
	RCALL _put_string
;    putchar1(34);
	LDI  R26,LOW(34)
	RCALL _putchar1
;    put_string(phone_number);
	LDI  R26,LOW(_phone_number)
	LDI  R27,HIGH(_phone_number)
	RCALL _put_string
;    glcd_outtextxy(0,10,phone_number);
	CALL SUBOPT_0x20
	LDI  R26,LOW(_phone_number)
	LDI  R27,HIGH(_phone_number)
	CALL _glcd_outtextxy
;    putchar1(34);
	LDI  R26,LOW(34)
	RCALL _putchar1
;    put_string("\r\n");
	__POINTW2MN _0xDA,40
	RCALL _put_string
;    wait_until("> ", 5000);
	__POINTW1MN _0xDA,43
	ST   -Y,R31
	ST   -Y,R30
	LDI  R26,LOW(5000)
	LDI  R27,HIGH(5000)
	RCALL _wait_until
;    while (*s) {
_0xDB:
	LD   R26,Y
	LDD  R27,Y+1
	LD   R30,X
	CPI  R30,0
	BREQ _0xDD
;        putchar1(*s);
	LD   R26,X
	RCALL _putchar1
;        s++;
	LD   R30,Y
	LDD  R31,Y+1
	ADIW R30,1
	ST   Y,R30
	STD  Y+1,R31
;    }
	RJMP _0xDB
_0xDD:
;    putchar1(0x1A);
	LDI  R26,LOW(26)
	RCALL _putchar1
;    glcd_outtextxy(15,30,"... done!");
	LDI  R30,LOW(15)
	ST   -Y,R30
	LDI  R30,LOW(30)
	ST   -Y,R30
	__POINTW2MN _0xDA,46
	CALL SUBOPT_0x33
;    delay_ms(2000);
;    glcd_clear();
	CALL _glcd_clear
;    gui_init();
	CALL SUBOPT_0x1D
;    is_show_clock = true;
;    clear_buffer();
	RCALL _clear_buffer
;}
_0x2160013:
	ADIW R28,2
	RET
; .FEND

	.DSEG
_0xDA:
	.BYTE 0x38
;
;void decrypt(unsigned char *s) {

	.CSEG
_decrypt:
; .FSTART _decrypt
;    char message[160], command[10];
;    int i = 0;
;    memset(command, '\0', 10);
	ST   -Y,R27
	ST   -Y,R26
	SBIW R28,63
	SBIW R28,63
	SBIW R28,44
	CALL SUBOPT_0x8
;	*s -> Y+172
;	message -> Y+12
;	command -> Y+2
;	i -> R16,R17
	CALL SUBOPT_0x11
	CALL SUBOPT_0x2F
;    memset(message, '\0', 160);
	MOVW R30,R28
	ADIW R30,12
	CALL SUBOPT_0x2C
	LDI  R26,LOW(160)
	LDI  R27,0
	CALL _memset
;     while (*s) {
_0xDE:
	CALL SUBOPT_0x34
	CPI  R30,0
	BREQ _0xE0
;        command[i] = *s;
	MOVW R30,R16
	MOVW R26,R28
	ADIW R26,2
	ADD  R30,R26
	ADC  R31,R27
	MOVW R22,R30
	CALL SUBOPT_0x34
	MOVW R26,R22
	ST   X,R30
;        s++;
	MOVW R26,R28
	SUBI R26,LOW(-(172))
	SBCI R27,HIGH(-(172))
	CALL SUBOPT_0x28
;        i++;
	__ADDWRN 16,17,1
;    }
	RJMP _0xDE
_0xE0:
;    if (strstr(command, "on")) toggle_relay(ON, command);     //find string "on" in command and excute relay
	CALL SUBOPT_0x35
	__POINTW2MN _0xE2,0
	CALL _strstr
	SBIW R30,0
	BREQ _0xE1
	LDI  R30,LOW(0)
	ST   -Y,R30
	MOVW R26,R28
	ADIW R26,3
	RCALL _toggle_relay
;    if (strstr(command, "off")) toggle_relay(OFF, command);
_0xE1:
	CALL SUBOPT_0x35
	__POINTW2MN _0xE2,3
	CALL _strstr
	SBIW R30,0
	BREQ _0xE3
	LDI  R30,LOW(1)
	ST   -Y,R30
	MOVW R26,R28
	ADIW R26,3
	RCALL _toggle_relay
;    if (strstr(command, "info")) {
_0xE3:
	CALL SUBOPT_0x35
	__POINTW2MN _0xE2,7
	CALL _strstr
	SBIW R30,0
	BRNE PC+2
	RJMP _0xE4
;        strcat(message, "1: ");
	CALL SUBOPT_0x36
	__POINTW2MN _0xE2,12
	CALL _strcat
;        if (relay_1 == ON) {
	SBIC 0x12,4
	RJMP _0xE5
;            strcat(message, "on");
	CALL SUBOPT_0x36
	__POINTW2MN _0xE2,16
	RJMP _0x2E3
;        } else {
_0xE5:
;            strcat(message, "off");
	CALL SUBOPT_0x36
	__POINTW2MN _0xE2,19
_0x2E3:
	CALL _strcat
;        }
;         strcat(message, "\r2: ");
	CALL SUBOPT_0x36
	__POINTW2MN _0xE2,23
	CALL _strcat
;        if (relay_2 == ON) {
	SBIC 0x12,7
	RJMP _0xE7
;            strcat(message, " on");
	CALL SUBOPT_0x36
	__POINTW2MN _0xE2,28
	RJMP _0x2E4
;        } else {
_0xE7:
;            strcat(message, " off");
	CALL SUBOPT_0x36
	__POINTW2MN _0xE2,32
_0x2E4:
	CALL _strcat
;        }
;        strcat(message, "\r3: ");
	CALL SUBOPT_0x36
	__POINTW2MN _0xE2,37
	CALL _strcat
;        if (relay_3 == ON) {
	SBIC 0x15,7
	RJMP _0xE9
;            strcat(message, " on");
	CALL SUBOPT_0x36
	__POINTW2MN _0xE2,42
	RJMP _0x2E5
;        } else {
_0xE9:
;            strcat(message, " off");
	CALL SUBOPT_0x36
	__POINTW2MN _0xE2,46
_0x2E5:
	CALL _strcat
;        }
;        strcat(message, "\r4: ");
	CALL SUBOPT_0x36
	__POINTW2MN _0xE2,51
	CALL _strcat
;        if (relay_4 == ON) {
	SBIC 0x1B,7
	RJMP _0xEB
;            strcat(message, " on");
	CALL SUBOPT_0x36
	__POINTW2MN _0xE2,56
	RJMP _0x2E6
;        } else {
_0xEB:
;            strcat(message, " off");
	CALL SUBOPT_0x36
	__POINTW2MN _0xE2,60
_0x2E6:
	CALL _strcat
;        }
;        strcat(message, "\r5: ");
	CALL SUBOPT_0x36
	__POINTW2MN _0xE2,65
	CALL _strcat
;        if (relay_5 == ON) {
	SBIC 0x1B,2
	RJMP _0xED
;            strcat(message, " on");
	CALL SUBOPT_0x36
	__POINTW2MN _0xE2,70
	RJMP _0x2E7
;        } else {
_0xED:
;            strcat(message, " off");
	CALL SUBOPT_0x36
	__POINTW2MN _0xE2,74
_0x2E7:
	CALL _strcat
;        }
;         sms_send(message);
	MOVW R26,R28
	ADIW R26,12
	RCALL _sms_send
;    }
;}
_0xE4:
	LDD  R17,Y+1
	LDD  R16,Y+0
	ADIW R28,63
	ADIW R28,63
	ADIW R28,48
	RET
; .FEND

	.DSEG
_0xE2:
	.BYTE 0x4F
;
;void toggle_relay (bool status, unsigned char *s) {

	.CSEG
_toggle_relay:
; .FSTART _toggle_relay
;	int DEFAULT_ALARM_DURATION = 1;
;    bool get_time = false;
;    char command[10], duration_in_minute[4];
;    int alarm_time_m = DEFAULT_ALARM_DURATION;
;    int i = 0, j = 0;
;    memset(command, '\0', 10);
	ST   -Y,R27
	ST   -Y,R26
	SBIW R28,18
	LDI  R30,LOW(0)
	ST   Y,R30
	STD  Y+1,R30
	STD  Y+2,R30
	STD  Y+3,R30
	CALL __SAVELOCR6
;	status -> Y+26
;	*s -> Y+24
;	DEFAULT_ALARM_DURATION -> R16,R17
;	get_time -> R19
;	command -> Y+14
;	duration_in_minute -> Y+10
;	alarm_time_m -> R20,R21
;	i -> Y+8
;	j -> Y+6
	__GETWRN 16,17,1
	LDI  R19,0
	MOVW R20,R16
	MOVW R30,R28
	ADIW R30,14
	CALL SUBOPT_0x2C
	CALL SUBOPT_0x2F
;    memset(duration_in_minute, '\0', 10);
	MOVW R30,R28
	ADIW R30,10
	CALL SUBOPT_0x2C
	CALL SUBOPT_0x2F
;     while (*s) {
_0xEF:
	LDD  R26,Y+24
	LDD  R27,Y+24+1
	LD   R30,X
	CPI  R30,0
	BREQ _0xF1
;        command[i] = *s;
	CALL SUBOPT_0x37
	ADD  R30,R26
	ADC  R31,R27
	MOVW R0,R30
	LDD  R26,Y+24
	LDD  R27,Y+24+1
	LD   R30,X
	MOVW R26,R0
	ST   X,R30
;        s++;
	LDD  R30,Y+24
	LDD  R31,Y+24+1
	ADIW R30,1
	STD  Y+24,R30
	STD  Y+24+1,R31
;        i++;
	CALL SUBOPT_0x38
;    }
	RJMP _0xEF
_0xF1:
;    /*
;    for (i = 1; command[i] != '#'; i++) {
;        if ((command[i - 1] == 'n') || (command[i - 1] == 'f')) { //on hoac off
;            duration_in_minute[j] = command[i];
;            j++;
;        }
;    }
;    */
;    for (i = 1; command[i] != '#'; i++) {
	LDI  R30,LOW(1)
	LDI  R31,HIGH(1)
	STD  Y+8,R30
	STD  Y+8+1,R31
_0xF3:
	CALL SUBOPT_0x37
	ADD  R26,R30
	ADC  R27,R31
	LD   R26,X
	CPI  R26,LOW(0x23)
	BREQ _0xF4
;        if ((command[i - 1] == 'n') || (command[i - 1] == 'f')) { //on hoac off
	LDD  R30,Y+8
	LDD  R31,Y+8+1
	SBIW R30,1
	MOVW R26,R28
	ADIW R26,14
	ADD  R26,R30
	ADC  R27,R31
	LD   R26,X
	CPI  R26,LOW(0x6E)
	BREQ _0xF6
	MOVW R26,R28
	ADIW R26,14
	ADD  R26,R30
	ADC  R27,R31
	LD   R26,X
	CPI  R26,LOW(0x66)
	BRNE _0xF5
_0xF6:
;            get_time = true;
	LDI  R19,LOW(1)
;        }
;        if(get_time){
_0xF5:
	CPI  R19,0
	BREQ _0xF8
;            duration_in_minute[j] = command[i];
	LDD  R30,Y+6
	LDD  R31,Y+6+1
	MOVW R26,R28
	ADIW R26,10
	ADD  R30,R26
	ADC  R31,R27
	MOVW R0,R30
	CALL SUBOPT_0x37
	ADD  R26,R30
	ADC  R27,R31
	CALL SUBOPT_0x2B
;            j++;
;        }
;    }
_0xF8:
	CALL SUBOPT_0x38
	RJMP _0xF3
_0xF4:
;    alarm_time_m = atoi(duration_in_minute);
	MOVW R26,R28
	ADIW R26,10
	CALL _atoi
	MOVW R20,R30
;    glcd_outtextxy(0,30,duration_in_minute);
	LDI  R30,LOW(0)
	ST   -Y,R30
	LDI  R30,LOW(30)
	ST   -Y,R30
	MOVW R26,R28
	ADIW R26,12
	CALL _glcd_outtextxy
;    if (alarm_time_m == 0) alarm_time_m = DEFAULT_ALARM_DURATION; //neu khong co thi cho no bang mac dinh
	MOV  R0,R20
	OR   R0,R21
	BRNE _0xF9
	MOVW R20,R16
;    switch (command[1]) {
_0xF9:
	LDD  R30,Y+15
	LDI  R31,0
;        case '1':
	CPI  R30,LOW(0x31)
	LDI  R26,HIGH(0x31)
	CPC  R31,R26
	BRNE _0xFD
;            relay_1                 =   status;
	LDD  R30,Y+26
	CPI  R30,0
	BRNE _0xFE
	CBI  0x12,4
	RJMP _0xFF
_0xFE:
	SBI  0x12,4
_0xFF:
;            node[1].status          =   status;
	__POINTW2MN _node,40
	LDD  R30,Y+26
	CALL __EEPROMWRB
;            node[1].alarm_time_m    =   alarm_time_m;
	__POINTW2MN _node,78
	MOVW R30,R20
	CALL __EEPROMWRW
;        break;
	RJMP _0xFC
;
;        case '2':
_0xFD:
	CPI  R30,LOW(0x32)
	LDI  R26,HIGH(0x32)
	CPC  R31,R26
	BRNE _0x100
;            relay_2                 =   status;
	LDD  R30,Y+26
	CPI  R30,0
	BRNE _0x101
	CBI  0x12,7
	RJMP _0x102
_0x101:
	SBI  0x12,7
_0x102:
;            node[2].status          =   status;
	__POINTW2MN _node,80
	LDD  R30,Y+26
	CALL __EEPROMWRB
;            node[2].alarm_time_m    =   alarm_time_m;
	__POINTW2MN _node,118
	MOVW R30,R20
	CALL __EEPROMWRW
;        break;
	RJMP _0xFC
;
;        case '3':
_0x100:
	CPI  R30,LOW(0x33)
	LDI  R26,HIGH(0x33)
	CPC  R31,R26
	BRNE _0x103
;            relay_3                 =   status;
	LDD  R30,Y+26
	CPI  R30,0
	BRNE _0x104
	CBI  0x15,7
	RJMP _0x105
_0x104:
	SBI  0x15,7
_0x105:
;            node[3].status          =   status;
	__POINTW2MN _node,120
	LDD  R30,Y+26
	CALL __EEPROMWRB
;            node[3].alarm_time_m    =   alarm_time_m;
	__POINTW2MN _node,158
	MOVW R30,R20
	CALL __EEPROMWRW
;        break;
	RJMP _0xFC
;
;        case '4':
_0x103:
	CPI  R30,LOW(0x34)
	LDI  R26,HIGH(0x34)
	CPC  R31,R26
	BRNE _0x109
;            relay_4                 =   status;
	LDD  R30,Y+26
	CPI  R30,0
	BRNE _0x107
	CBI  0x1B,7
	RJMP _0x108
_0x107:
	SBI  0x1B,7
_0x108:
;            node[4].status          =   status;
	__POINTW2MN _node,160
	LDD  R30,Y+26
	CALL __EEPROMWRB
;            node[4].alarm_time_m    =   alarm_time_m;
	__POINTW2MN _node,198
	MOVW R30,R20
	CALL __EEPROMWRW
;        break;
	RJMP _0xFC
;
;        default:
_0x109:
;            relay_1                 =   status;
	LDD  R30,Y+26
	CPI  R30,0
	BRNE _0x10A
	CBI  0x12,4
	RJMP _0x10B
_0x10A:
	SBI  0x12,4
_0x10B:
;            relay_2                 =   status;
	LDD  R30,Y+26
	CPI  R30,0
	BRNE _0x10C
	CBI  0x12,7
	RJMP _0x10D
_0x10C:
	SBI  0x12,7
_0x10D:
;            relay_3                 =   status;
	LDD  R30,Y+26
	CPI  R30,0
	BRNE _0x10E
	CBI  0x15,7
	RJMP _0x10F
_0x10E:
	SBI  0x15,7
_0x10F:
;            relay_4                 =   status;
	LDD  R30,Y+26
	CPI  R30,0
	BRNE _0x110
	CBI  0x1B,7
	RJMP _0x111
_0x110:
	SBI  0x1B,7
_0x111:
;            for (i = 1; i < 5; i++)
	LDI  R30,LOW(1)
	LDI  R31,HIGH(1)
	STD  Y+8,R30
	STD  Y+8+1,R31
_0x113:
	LDD  R26,Y+8
	LDD  R27,Y+8+1
	SBIW R26,5
	BRGE _0x114
;                node[i].status      =   status;
	LDD  R26,Y+8
	LDD  R27,Y+8+1
	LDI  R30,LOW(40)
	CALL __MULB1W2U
	SUBI R30,LOW(-_node)
	SBCI R31,HIGH(-_node)
	MOVW R26,R30
	LDD  R30,Y+26
	CALL __EEPROMWRB
	CALL SUBOPT_0x38
	RJMP _0x113
_0x114:
;    }
_0xFC:
;}
	CALL __LOADLOCR6
	ADIW R28,27
	RET
; .FEND
;
;
;void gprs_read() {
_gprs_read:
; .FSTART _gprs_read
;    int i=0;
;    is_show_clock = false;
	CALL SUBOPT_0x8
;	i -> R16,R17
	CLR  R4
;    glcd_setfont(font5x7);
	CALL SUBOPT_0x7
;    glcd_clear();
	CALL SUBOPT_0x39
;    glcd_outtextxy(15,0,"Got GPRS CMD \n");
	__POINTW2MN _0x115,0
	CALL _glcd_outtextxy
;    put_string("AT+CIPSTART=\"TCP\",\"103.18.6.134\",80\r");
	__POINTW2MN _0x115,15
	RCALL _put_string
;    wait_until("CONNECT OK", 15000);
	__POINTW1MN _0x115,52
	ST   -Y,R31
	ST   -Y,R30
	LDI  R26,LOW(15000)
	LDI  R27,HIGH(15000)
	RCALL _wait_until
;    delay_ms(200);
	LDI  R26,LOW(200)
	LDI  R27,0
	CALL _delay_ms
;    put_string("AT+CIPSEND\r");
	__POINTW2MN _0x115,63
	RCALL _put_string
;    wait_until("> ", 4000);
	__POINTW1MN _0x115,75
	CALL SUBOPT_0x3A
;    put_string("GET /irrigation/php/receivedata.php?value=70 HTTP/1.1\r\n");
	__POINTW2MN _0x115,78
	RCALL _put_string
;    put_string("HOST: www.openrobohus.com\r\n");
	__POINTW2MN _0x115,134
	CALL SUBOPT_0x3B
;    delay_ms(100);
;    put_string("Connection: close\r\n\r\n");
	__POINTW2MN _0x115,162
	RCALL _put_string
;    putchar1(0x1A);
	LDI  R26,LOW(26)
	RCALL _putchar1
;    wait_until("OK", 1000);
	__POINTW1MN _0x115,184
	CALL SUBOPT_0x3C
;    //put_command("AT+CIPCLOSE\r\n",DEFAULT_TIME_OUT_MS,DEFAULT_MAX_RETRY);
;
;    for (i = 0; receive_buffer[i] != '\0'; i++) {
_0x117:
	CALL SUBOPT_0x30
	LD   R30,X
	CPI  R30,0
	BREQ _0x118
;         glcd_putchar(receive_buffer[i]);
	CALL SUBOPT_0x30
	CALL SUBOPT_0x3D
;         if (i % 20 == 0) {
	BRNE _0x119
;            delay_ms(800);
	CALL SUBOPT_0x3E
;            glcd_clear();}
;    }
_0x119:
	__ADDWRN 16,17,1
	RJMP _0x117
_0x118:
;    //delay_ms(2000);
;     //glcd_outtextxy(15,0,receive_buffer);
;
;    //p4=search(receive_buffer,"*4on");
;    //p3=search(receive_buffer,"*3on");
;    //p2=search(receive_buffer,"*2on");
;   // p1=search(receive_buffer,"*1on");
;
;    glcd_outtextxy(0,10,"ok");
	CALL SUBOPT_0x20
	__POINTW2MN _0x115,187
	CALL SUBOPT_0x33
;    delay_ms(2000);
;    clear_buffer();
	CALL SUBOPT_0x32
;    glcd_clear();
;    delay_ms(100);
	CALL SUBOPT_0x3F
;    gui_init();
	CALL _gui_init
;    delay_ms(100);
	CALL SUBOPT_0x3F
;    is_show_clock = true;
	LDI  R30,LOW(1)
	MOV  R4,R30
;
;}
	RJMP _0x216000F
; .FEND

	.DSEG
_0x115:
	.BYTE 0xBE
;
;
;
;
;void gprs_send() {

	.CSEG
_gprs_send:
; .FSTART _gprs_send
;   // PORTC.6=!PORTC.6;
;   int i=0;
;    is_show_clock = false;
	CALL SUBOPT_0x8
;	i -> R16,R17
	CLR  R4
;    glcd_setfont(font5x7);
	CALL SUBOPT_0x7
;    glcd_clear();
	CALL SUBOPT_0x39
;    glcd_outtextxy(15,0,"Send Data\n");
	__POINTW2MN _0x11A,0
	CALL _glcd_outtextxy
;    put_string("AT+CIPSTART=\"TCP\",\"103.18.6.134\",80\r");
	__POINTW2MN _0x11A,11
	RCALL _put_string
;    wait_until("CONNECT OK", 20000);
	__POINTW1MN _0x11A,48
	ST   -Y,R31
	ST   -Y,R30
	LDI  R26,LOW(20000)
	LDI  R27,HIGH(20000)
	RCALL _wait_until
;    delay_ms(1000);
	LDI  R26,LOW(1000)
	LDI  R27,HIGH(1000)
	CALL _delay_ms
;    put_string("AT+CIPSEND\r");
	__POINTW2MN _0x11A,59
	RCALL _put_string
;    wait_until("> ", 4000);
	__POINTW1MN _0x11A,71
	CALL SUBOPT_0x3A
;    put_string("GET /irrigation/php/senddata.php?value=1,5,2,6,22 HTTP/1.1\r\n");
	__POINTW2MN _0x11A,74
	RCALL _put_string
;    put_string("HOST: www.openrobohus.com\r\n");
	__POINTW2MN _0x11A,135
	CALL SUBOPT_0x3B
;    delay_ms(100);
;    put_string("Connection: close\r\n\r\n");
	__POINTW2MN _0x11A,163
	RCALL _put_string
;    putchar1(0x1A);
	LDI  R26,LOW(26)
	RCALL _putchar1
;    wait_until("OK", 1000);
	__POINTW1MN _0x11A,185
	CALL SUBOPT_0x3C
;    //put_command("AT+CIPCLOSE\r\n",DEFAULT_TIME_OUT_MS,DEFAULT_MAX_RETRY);
;
;    for (i = 0; receive_buffer[i] != '\0'; i++) {
_0x11C:
	CALL SUBOPT_0x30
	LD   R30,X
	CPI  R30,0
	BREQ _0x11D
;         glcd_putchar(receive_buffer[i]);
	CALL SUBOPT_0x30
	CALL SUBOPT_0x3D
;         if (i % 20 == 0) {
	BRNE _0x11E
;            delay_ms(800);
	CALL SUBOPT_0x3E
;            glcd_clear();}
;    }
_0x11E:
	__ADDWRN 16,17,1
	RJMP _0x11C
_0x11D:
;    delay_ms(2000);
	CALL SUBOPT_0x31
;
;    glcd_outtextxy(0,10,"done");
	CALL SUBOPT_0x20
	__POINTW2MN _0x11A,188
	CALL SUBOPT_0x33
;    delay_ms(2000);
;    clear_buffer();
	CALL SUBOPT_0x32
;    glcd_clear();
;    delay_ms(100);
	CALL SUBOPT_0x3F
;    gui_init();
	CALL _gui_init
;    delay_ms(100);
	CALL SUBOPT_0x3F
;    is_show_clock = true;
	LDI  R30,LOW(1)
	MOV  R4,R30
;}
	RJMP _0x216000F
; .FEND

	.DSEG
_0x11A:
	.BYTE 0xC1
;
;void call(){

	.CSEG
_call:
; .FSTART _call
;    put_string("ATD+84983712941;\r\n");
	__POINTW2MN _0x11F,0
	RCALL _put_string
;}
	RET
; .FEND

	.DSEG
_0x11F:
	.BYTE 0x13
;void get_money_request(){

	.CSEG
;    is_get_money = true;
;    glcd_clear();
;    glcd_outtext("start get money\n");
;    put_string("AT+CUSD=1,");
;    putchar1('"');
;    put_string("*101#");
;    putchar1('"');
;    put_string("\r\n");
;    if(sim == 0)
;        get_money_response_vietnammobile();
;    else if(sim == 1)
;        get_money_response_viettel();
;}

	.DSEG
_0x120:
	.BYTE 0x25
;
;void get_money_response_vietnammobile(){

	.CSEG
;    bool is_money = true;
;    unsigned char buff_money;
;    int count=0, j=0;
;    glcd_clear();
;	is_money -> R17
;	buff_money -> R16
;	count -> R18,R19
;	j -> R20,R21
;    glcd_outtext("get money response");
;    while(is_money){
;        buff_money = getchar1();
;        if(buff_money == ':'){
;            count++;
;        }
;        if(count == 2){
;            money[j] = buff_money;
;            j++;
;        }
;        if(count == 2 && buff_money == 'd')
;            is_money = false;
;    }
;    sms_send(money);
;    delay_ms(2000);
;    is_get_money = false;
;}

	.DSEG
_0x124:
	.BYTE 0x13
;
;void get_money_response_viettel(){

	.CSEG
;    bool is_money = true;
;    unsigned char buff_money;
;    int count=0, j=0;
;    glcd_clear();
;	is_money -> R17
;	buff_money -> R16
;	count -> R18,R19
;	j -> R20,R21
;    glcd_outtext("get money response");
;    while(is_money){
;        buff_money = getchar1();
;        if(buff_money == '"'){
;            count++;
;        }
;        if(count == 1 && buff_money > 45 && buff_money < 58){
;            money[j] = buff_money;
;            j++;
;        }
;        if(count == 1 && buff_money == 'd')
;            is_money = false;
;    }
;    /*glcd_clear();
;    glcd_outtext("money: ");
;    glcd_outtext(money);*/
;    sms_send(money);
;    delay_ms(2000);
;    is_get_money = false;
;}

	.DSEG
_0x12D:
	.BYTE 0x13
;
;void put_money(){

	.CSEG
;    glcd_clear();
;    glcd_outtext("put money on phone\n");
;    glcd_outtext(money_code);
;    put_string("AT+CUSD=1,");
;    putchar1('"');
;    put_string("*100*");
;    put_string(money_code);
;    putchar1('#');
;    putchar1('"');
;    put_string("\r\n");
;    delay_ms(4000);
;    get_money_request();
;}

	.DSEG
_0x138:
	.BYTE 0x28
;
;
;   void test(){

	.CSEG
;    int
;    i,d;
;
;    //char ahi[]="fgvjhjbhgndxfcid=69#{'lenh':'*1off#'}{'lenh':'*2off#'}{'lenh':'*3on8#'}{'lenh':'*4on15#'} ";
;
;    p4=search(ahi,"*4on");
;	i -> R16,R17
;	d -> R18,R19
;    p3=search(ahi,"*3on");
;    p2=search(ahi,"*2on");
;    p1=search(ahi,"*1on");
;
;    for(d=0;d<strlen(ahi);d++){
;    ahi[d]='\0';
;    }
; }

	.DSEG
_0x139:
	.BYTE 0x14
;
;
;
;int search( char nguon[], char *dau){

	.CSEG
;    int i,a,b=0,c=0;
;    char so;
;    char begin[], cuoi[]="#";
;    strcpy(begin,strstr(nguon,dau));
;	nguon -> Y+13
;	*dau -> Y+11
;	i -> R16,R17
;	a -> R18,R19
;	b -> R20,R21
;	c -> Y+9
;	so -> Y+8
;	begin -> Y+8
;	cuoi -> Y+6
;    a=(strlen(begin)-strlen(strstr(begin,cuoi)));
;    for (i = 4; i<a ; i++) {
;         //glcd_putchar(begin[i]);
;        c=begin[i]-48;
;         b=b*10+c;
;    }
;    delay_ms(2000);
;    if(strlen(begin)==0){b=-1;};
;    //if(strlen(strstr(dau,"off"))!=0){b=0;};
;     return b;
;   }
;
;
;#include <relay_setting.c>
;void gui_choose_relay           ();	//setup for relay timer
;void gui_relay_setting          (int node_name);
;
;void exe_relay                  (int command, int node_name);
;
;void choose_multiple_hour       (int node_name);
;void choose_multiple_week_day   (int node_name);
;
;void gui_choose_relay() {
; 0000 0020 void gui_choose_relay() {
_gui_choose_relay:
; .FSTART _gui_choose_relay
;    int i;
;
;    while (1) {
	ST   -Y,R17
	ST   -Y,R16
;	i -> R16,R17
_0x141:
;        i = 1;
	CALL SUBOPT_0x40
;        clrscr();
;        gui_set_title("SET NODE");
	__POINTW2MN _0x144,0
	CALL SUBOPT_0x41
;        glcd_setfont(relay_icon_10x14);
;        glcd_putcharxy(5, 22, node[1].status);
	CALL SUBOPT_0x42
	__POINTW2MN _node,40
	CALL SUBOPT_0x43
;        glcd_setfont(big_letter_10x14);
;        glcd_outtextxyf(25,22, name_relay[i]);
	CALL SUBOPT_0x44
;       // glcd_outtext("@ "); //dau mui ten xuong
;        glcd_setfont(font5x7);
	CALL SUBOPT_0x7
;        glcd_putcharxy(x - 7,y,' '); //xoa dau >
	CALL SUBOPT_0x21
;        while(1) {
_0x145:
;            if (btn_enter) {
	SBIC 0x19,3
	RJMP _0x148
;                while (btn_enter);
_0x149:
	SBIS 0x19,3
	RJMP _0x149
;                if (i == 6) { //ALL
	LDI  R30,LOW(6)
	LDI  R31,HIGH(6)
	CP   R30,R16
	CPC  R31,R17
	BRNE _0x14C
;                    relay_1 = !relay_1;
	SBIS 0x12,4
	RJMP _0x14D
	CBI  0x12,4
	RJMP _0x14E
_0x14D:
	SBI  0x12,4
_0x14E:
;                    relay_2 = !relay_2;
	SBIS 0x12,7
	RJMP _0x14F
	CBI  0x12,7
	RJMP _0x150
_0x14F:
	SBI  0x12,7
_0x150:
;                    relay_3 = !relay_3;
	SBIS 0x15,7
	RJMP _0x151
	CBI  0x15,7
	RJMP _0x152
_0x151:
	SBI  0x15,7
_0x152:
;                    relay_4 = !relay_4;
	SBIS 0x1B,7
	RJMP _0x153
	CBI  0x1B,7
	RJMP _0x154
_0x153:
	SBI  0x1B,7
_0x154:
;                    relay_5 = !relay_5;
	SBIS 0x1B,2
	RJMP _0x155
	CBI  0x1B,2
	RJMP _0x156
_0x155:
	SBI  0x1B,2
_0x156:
;                    for (i = 1; i <= 5; i++) {
	__GETWRN 16,17,1
_0x158:
	__CPWRN 16,17,6
	BRGE _0x159
;                        node[i].status = !node[i].status;
	CALL SUBOPT_0x45
	CALL SUBOPT_0x46
;                    }
	__ADDWRN 16,17,1
	RJMP _0x158
_0x159:
;                } else {
	RJMP _0x15A
_0x14C:
;                    gui_relay_setting(i);
	MOVW R26,R16
	RCALL _gui_relay_setting
;                }
_0x15A:
;
;                break; //break khoi vong while trong thi no se chay lai vong while ngoai tu dau, khong phai init lai gui
	RJMP _0x147
;            }
;            if (btn_back) {
_0x148:
	SBIC 0x19,4
	RJMP _0x15B
;                while (btn_back);
_0x15C:
	SBIS 0x19,4
	RJMP _0x15C
;                if (i == 6) {
	LDI  R30,LOW(6)
	LDI  R31,HIGH(6)
	CP   R30,R16
	CPC  R31,R17
	BRNE _0x15F
;                    i = 1;
	__GETWRN 16,17,1
;                } else {
	RJMP _0x160
_0x15F:
;                    i++;
	__ADDWRN 16,17,1
;                }
_0x160:
;
;                glcd_setfont(relay_icon_10x14);
	CALL SUBOPT_0x47
;
;                    glcd_putcharxy(5, 22, node[i].status);
	CALL SUBOPT_0x42
	CALL SUBOPT_0x45
	MOVW R26,R30
	CALL SUBOPT_0x43
;
;                glcd_setfont(big_letter_10x14);
;
;                    glcd_outtextxyf(25,22,name_relay[i]);
	CALL SUBOPT_0x44
;                    glcd_outtext("@"); //dau mui ten xuong
	__POINTW2MN _0x144,9
	CALL SUBOPT_0x48
;
;                glcd_setfont(font5x7);
;
;            }
;            if (btn_menu) {        //move to main menu
_0x15B:
	SBIC 0x19,5
	RJMP _0x161
;                while (btn_menu);
_0x162:
	SBIS 0x19,5
	RJMP _0x162
;                return;
	RJMP _0x216000F
;            }
;        }
_0x161:
	RJMP _0x145
_0x147:
;    }
	RJMP _0x141
;}
; .FEND

	.DSEG
_0x144:
	.BYTE 0xB
;
;void gui_relay_setting(int node_name) {

	.CSEG
_gui_relay_setting:
; .FSTART _gui_relay_setting
;    int erase_position = 0;
;    int command;
;    char title[10];
;    memset(title, '\0', 10);
	ST   -Y,R27
	ST   -Y,R26
	SBIW R28,10
	CALL SUBOPT_0x15
;	node_name -> Y+14
;	erase_position -> R16,R17
;	command -> R18,R19
;	title -> Y+4
	CALL SUBOPT_0x1E
	CALL SUBOPT_0x2F
;    strcpy(title, "NODE ");
	MOVW R30,R28
	ADIW R30,4
	ST   -Y,R31
	ST   -Y,R30
	__POINTW2MN _0x165,0
	CALL _strcpy
;    title[6] = '0' + node_name;
	LDD  R30,Y+14
	SUBI R30,-LOW(48)
	STD  Y+10,R30
;    while (1) {
_0x166:
;        clrscr();
	CALL _clrscr
;        gui_set_title(title);
	MOVW R26,R28
	ADIW R26,4
	CALL SUBOPT_0x16
;        gui_set_choice(y + NEW_LINE * 0, "On/Off");
	__POINTW2MN _0x165,6
	CALL SUBOPT_0x17
;        gui_set_choice(y + NEW_LINE * 1, "Set Hour");
	__POINTW2MN _0x165,13
	CALL SUBOPT_0x18
;        gui_set_choice(y + NEW_LINE * 2, "Set Week Day");
	__POINTW2MN _0x165,22
	CALL SUBOPT_0x19
;        gui_set_choice(y + NEW_LINE * 3, "Status");
	__POINTW2MN _0x165,35
	CALL _gui_set_choice
;        command = 1;
	__GETWRN 18,19,1
;        while (1) {
_0x169:
;
;            if (btn_enter) {           //excute role menu when press enter button
	SBIC 0x19,3
	RJMP _0x16C
;                while(btn_enter);
_0x16D:
	SBIS 0x19,3
	RJMP _0x16D
;                exe_relay(command, node_name);   //in function exe_relay
	ST   -Y,R19
	ST   -Y,R18
	LDD  R26,Y+16
	LDD  R27,Y+16+1
	RCALL _exe_relay
;                break;
	RJMP _0x16B
;            }
;            if (btn_back) {            //next command when press back button
_0x16C:
	SBIC 0x19,4
	RJMP _0x170
;                while(btn_back);
_0x171:
	SBIS 0x19,4
	RJMP _0x171
;                command++;
	CALL SUBOPT_0x1A
;                y += NEW_LINE;
;                if (command > 4) {
	BRLT _0x174
;                    erase_position  =   4;
	CALL SUBOPT_0x1B
;                    command         =   1;
;                    y               =   15;
;                }
;                gui_cursor_move(erase_position);    //move cursor position
_0x174:
	CALL SUBOPT_0x1C
;                erase_position      =   0;
;            }
;
;            if (btn_menu) {         //back to main screen when press menu button
_0x170:
	SBIC 0x19,5
	RJMP _0x175
;                while (btn_menu);
_0x176:
	SBIS 0x19,5
	RJMP _0x176
;                return;
	RJMP _0x2160012
;            }
;        }
_0x175:
	RJMP _0x169
_0x16B:
;    }
	RJMP _0x166
;}
_0x2160012:
	CALL __LOADLOCR4
	ADIW R28,16
	RET
; .FEND

	.DSEG
_0x165:
	.BYTE 0x2A
;
;void exe_relay(int command, int node_name) {

	.CSEG
_exe_relay:
; .FSTART _exe_relay
;    switch (command) {
	ST   -Y,R27
	ST   -Y,R26
;	command -> Y+2
;	node_name -> Y+0
	LDD  R30,Y+2
	LDD  R31,Y+2+1
;        case 1:
	CPI  R30,LOW(0x1)
	LDI  R26,HIGH(0x1)
	CPC  R31,R26
	BREQ PC+2
	RJMP _0x17C
;            switch (node_name) {
	LD   R30,Y
	LDD  R31,Y+1
;                case 1:
	CPI  R30,LOW(0x1)
	LDI  R26,HIGH(0x1)
	CPC  R31,R26
	BRNE _0x180
;                    relay_1 = !relay_1;
	SBIS 0x12,4
	RJMP _0x181
	CBI  0x12,4
	RJMP _0x182
_0x181:
	SBI  0x12,4
_0x182:
;                    node[1].status = '0' + (relay_1 == ON);
	CALL SUBOPT_0x49
	LDI  R31,0
	ADIW R30,48
	__POINTW2MN _node,40
	RJMP _0x2E8
;                break;
;
;                case 2:
_0x180:
	CPI  R30,LOW(0x2)
	LDI  R26,HIGH(0x2)
	CPC  R31,R26
	BRNE _0x183
;                    relay_2 = !relay_2;
	SBIS 0x12,7
	RJMP _0x184
	CBI  0x12,7
	RJMP _0x185
_0x184:
	SBI  0x12,7
_0x185:
;                    node[2].status = '0' + (relay_2 == ON);
	CALL SUBOPT_0x4A
	LDI  R31,0
	ADIW R30,48
	__POINTW2MN _node,80
	RJMP _0x2E8
;                break;
;
;                case 3:
_0x183:
	CPI  R30,LOW(0x3)
	LDI  R26,HIGH(0x3)
	CPC  R31,R26
	BRNE _0x186
;                    relay_3 = !relay_3;
	SBIS 0x15,7
	RJMP _0x187
	CBI  0x15,7
	RJMP _0x188
_0x187:
	SBI  0x15,7
_0x188:
;                    node[3].status = '0' + (relay_3 == ON);
	CALL SUBOPT_0x4B
	LDI  R31,0
	ADIW R30,48
	__POINTW2MN _node,120
	RJMP _0x2E8
;                break;
;
;                case 4:
_0x186:
	CPI  R30,LOW(0x4)
	LDI  R26,HIGH(0x4)
	CPC  R31,R26
	BRNE _0x189
;                    relay_4 = !relay_4;
	SBIS 0x1B,7
	RJMP _0x18A
	CBI  0x1B,7
	RJMP _0x18B
_0x18A:
	SBI  0x1B,7
_0x18B:
;                    node[4].status = '0' + (relay_4 == ON);
	CALL SUBOPT_0x4C
	LDI  R31,0
	ADIW R30,48
	__POINTW2MN _node,160
	RJMP _0x2E8
;                break;
;
;                case 5:
_0x189:
	CPI  R30,LOW(0x5)
	LDI  R26,HIGH(0x5)
	CPC  R31,R26
	BRNE _0x17F
;                    relay_5 = !relay_5;
	SBIS 0x1B,2
	RJMP _0x18D
	CBI  0x1B,2
	RJMP _0x18E
_0x18D:
	SBI  0x1B,2
_0x18E:
;                    node[5].status = '0' + (relay_5 == ON);
	CALL SUBOPT_0x4D
	LDI  R31,0
	ADIW R30,48
	__POINTW2MN _node,200
_0x2E8:
	OR   R30,R31
	LDI  R30,1
	BRBC 0x1,PC+2
	LDI  R30,0
	CALL __EEPROMWRB
;                break;
;            }
_0x17F:
;        break;
	RJMP _0x17B
;
;        case 2:
_0x17C:
	CPI  R30,LOW(0x2)
	LDI  R26,HIGH(0x2)
	CPC  R31,R26
	BRNE _0x18F
;            choose_multiple_hour(node_name);
	LD   R26,Y
	LDD  R27,Y+1
	RCALL _choose_multiple_hour
;        break;
	RJMP _0x17B
;
;        case 3:
_0x18F:
	CPI  R30,LOW(0x3)
	LDI  R26,HIGH(0x3)
	CPC  R31,R26
	BRNE _0x190
;            choose_multiple_week_day(node_name);
	LD   R26,Y
	LDD  R27,Y+1
	RCALL _choose_multiple_week_day
;        break;
;
;        case 4:
_0x190:
;            // gui_set_title("STATUS");
;
;            // glcd_putcharxy(x - 7,y,' '); //xoa dau >
;
;
;
;        break;
;    }
_0x17B:
;}
	RJMP _0x2160011
; .FEND
;
;void choose_multiple_hour(int node_name) {
_choose_multiple_hour:
; .FSTART _choose_multiple_hour
;    int i;
;
;    while (1) {
	ST   -Y,R27
	ST   -Y,R26
	ST   -Y,R17
	ST   -Y,R16
;	node_name -> Y+2
;	i -> R16,R17
;        i = 0;
	CALL SUBOPT_0x4E
;        clrscr();
;        gui_set_title("HOUR");
	__POINTW2MN _0x195,0
	CALL SUBOPT_0x41
;
;        glcd_setfont(relay_icon_10x14);
;
;            glcd_putcharxy(5, 22, '0' + node[node_name].active_hour[0]);
	CALL SUBOPT_0x42
	CALL SUBOPT_0x4F
	CALL SUBOPT_0x50
;
;
;        glcd_setfont(big_letter_10x14);
	CALL SUBOPT_0xE
;
;            glcd_outtextxyf(25,22,name_hour[i]); // 0h
	CALL SUBOPT_0x51
;            glcd_outtext("@"); //dau mui ten xuong
	__POINTW2MN _0x195,5
	CALL SUBOPT_0x48
;
;        glcd_setfont(font5x7);
;
;        glcd_putcharxy(x - 7,y,' '); //xoa dau >
	CALL SUBOPT_0x21
;
;        while(1) {
_0x196:
;            if (btn_enter) {
	SBIC 0x19,3
	RJMP _0x199
;                while (btn_enter);
_0x19A:
	SBIS 0x19,3
	RJMP _0x19A
;                node[node_name].active_hour[i] = !node[node_name].active_hour[i];
	LDD  R26,Y+2
	LDD  R27,Y+2+1
	LDI  R30,LOW(40)
	CALL __MULB1W2U
	__ADDW1MN _node,1
	CALL SUBOPT_0x52
;
;                glcd_setfont(relay_icon_10x14);
;
;                    glcd_putcharxy(5, 22, '0' + node[node_name].active_hour[i]);
	CALL SUBOPT_0x42
	CALL SUBOPT_0x4F
	CALL SUBOPT_0x53
;
;            }
;            if (btn_back) {
_0x199:
	SBIC 0x19,4
	RJMP _0x19D
;                while (btn_back);
_0x19E:
	SBIS 0x19,4
	RJMP _0x19E
;                if (i == 23) {
	LDI  R30,LOW(23)
	LDI  R31,HIGH(23)
	CP   R30,R16
	CPC  R31,R17
	BRNE _0x1A1
;                    i = 0;
	__GETWRN 16,17,0
;                } else {
	RJMP _0x1A2
_0x1A1:
;                    i++;
	__ADDWRN 16,17,1
;                }
_0x1A2:
;
;                glcd_setfont(relay_icon_10x14);
	CALL SUBOPT_0x47
;
;                    glcd_putcharxy(5, 22, '0' + node[node_name].active_hour[i]);
	CALL SUBOPT_0x42
	CALL SUBOPT_0x4F
	CALL SUBOPT_0x53
;
;                glcd_setfont(big_letter_10x14);
	CALL SUBOPT_0xE
;
;                    glcd_outtextxyf(25,22,name_hour[i]);
	CALL SUBOPT_0x51
;                    glcd_outtext("@"); //dau mui ten xuong
	__POINTW2MN _0x195,7
	CALL SUBOPT_0x48
;
;                glcd_setfont(font5x7);
;            }
;            if (btn_menu) {
_0x19D:
	SBIC 0x19,5
	RJMP _0x1A3
;                while (btn_menu);
_0x1A4:
	SBIS 0x19,5
	RJMP _0x1A4
;                return;
	RJMP _0x2160010
;            }
;        }
_0x1A3:
	RJMP _0x196
;    }
;}
; .FEND

	.DSEG
_0x195:
	.BYTE 0x9
;
;void choose_multiple_week_day(int node_name) {

	.CSEG
_choose_multiple_week_day:
; .FSTART _choose_multiple_week_day
;    int i;
;
;    while (1) {
	ST   -Y,R27
	ST   -Y,R26
	ST   -Y,R17
	ST   -Y,R16
;	node_name -> Y+2
;	i -> R16,R17
;        i = 1;
	CALL SUBOPT_0x40
;        clrscr();
;        gui_set_title("WEEK DAY");
	__POINTW2MN _0x1AA,0
	CALL SUBOPT_0x41
;
;        glcd_setfont(relay_icon_10x14);
;
;            glcd_putcharxy(5, 22, '0' + node[node_name].active_week_day[1]);
	CALL SUBOPT_0x42
	CALL SUBOPT_0x54
	__ADDW1MN _node,26
	CALL SUBOPT_0x50
;
;        glcd_setfont(big_letter_10x14);
	CALL SUBOPT_0xE
;
;            glcd_outtextxyf(25,22,name_week_day[i]); //sunday
	CALL SUBOPT_0x55
;            glcd_outtext("@"); //dau mui ten xuong
	__POINTW2MN _0x1AA,9
	CALL SUBOPT_0x48
;
;        glcd_setfont(font5x7);
;
;        glcd_putcharxy(x - 7,y,' '); //xoa dau >
	CALL SUBOPT_0x21
;
;        while(1) {
_0x1AB:
;            if (btn_enter) {
	SBIC 0x19,3
	RJMP _0x1AE
;                while (btn_enter);
_0x1AF:
	SBIS 0x19,3
	RJMP _0x1AF
;                node[node_name].active_week_day[i] = !node[node_name].active_week_day[i];
	LDD  R26,Y+2
	LDD  R27,Y+2+1
	LDI  R30,LOW(40)
	CALL __MULB1W2U
	__ADDW1MN _node,25
	CALL SUBOPT_0x52
;
;                glcd_setfont(relay_icon_10x14);
;
;                    glcd_putcharxy(5, 22, '0' + node[node_name].active_week_day[i]);
	CALL SUBOPT_0x42
	CALL SUBOPT_0x54
	__ADDW1MN _node,25
	CALL SUBOPT_0x53
;
;            }
;            if (btn_back) {
_0x1AE:
	SBIC 0x19,4
	RJMP _0x1B2
;                while (btn_back);
_0x1B3:
	SBIS 0x19,4
	RJMP _0x1B3
;                if (i == 7) {
	LDI  R30,LOW(7)
	LDI  R31,HIGH(7)
	CP   R30,R16
	CPC  R31,R17
	BRNE _0x1B6
;                    i = 1;
	__GETWRN 16,17,1
;                } else {
	RJMP _0x1B7
_0x1B6:
;                    i++;
	__ADDWRN 16,17,1
;                }
_0x1B7:
;
;                glcd_setfont(relay_icon_10x14);
	CALL SUBOPT_0x47
;
;                    glcd_putcharxy(5, 22, '0' + node[node_name].active_week_day[i]);
	CALL SUBOPT_0x42
	CALL SUBOPT_0x54
	__ADDW1MN _node,25
	CALL SUBOPT_0x53
;
;                glcd_setfont(big_letter_10x14);
	CALL SUBOPT_0xE
;
;                    glcd_outtextxyf(25,22,name_week_day[i]);
	CALL SUBOPT_0x55
;                    glcd_outtext("@"); //dau mui ten xuong
	__POINTW2MN _0x1AA,11
	CALL SUBOPT_0x48
;
;                glcd_setfont(font5x7);
;
;            }
;            if (btn_menu) {
_0x1B2:
	SBIC 0x19,5
	RJMP _0x1B8
;                while (btn_menu);
_0x1B9:
	SBIS 0x19,5
	RJMP _0x1B9
;                return;
	RJMP _0x2160010
;            }
;        }
_0x1B8:
	RJMP _0x1AB
;    }
;}
_0x2160010:
	LDD  R17,Y+1
	LDD  R16,Y+0
_0x2160011:
	ADIW R28,4
	RET
; .FEND

	.DSEG
_0x1AA:
	.BYTE 0xD
;
;void get_relay_status() {      //show relay status in screen

	.CSEG
_get_relay_status:
; .FSTART _get_relay_status
;	node[1].status = (relay_1 == ON) + '0';
	__POINTW1MN _node,40
	MOVW R0,R30
	CALL SUBOPT_0x49
	CALL SUBOPT_0x56
;	node[2].status = (relay_2 == ON) + '0';
	__POINTW1MN _node,80
	MOVW R0,R30
	CALL SUBOPT_0x4A
	CALL SUBOPT_0x56
;	node[3].status = (relay_3 == ON) + '0';
	__POINTW1MN _node,120
	MOVW R0,R30
	CALL SUBOPT_0x4B
	CALL SUBOPT_0x56
;	node[4].status = (relay_4 == ON) + '0';
	__POINTW1MN _node,160
	MOVW R0,R30
	CALL SUBOPT_0x4C
	CALL SUBOPT_0x56
;	node[5].status = (relay_5 == ON) + '0';
	__POINTW1MN _node,200
	MOVW R0,R30
	CALL SUBOPT_0x4D
	CALL SUBOPT_0x56
;}
	RET
; .FEND
;#include <time_date_setting.c>
;int choose_week_day             (); //setup current week
;int choose_day                  (); //setup current day
;int choose_month                ();	//setup current month
;int choose_year                 (); //setup current year
;int choose_hour                 (); //setup current hour
;int choose_minute               ();	//setup current minute
;int choose_second               ();	//setup current second
;void gui_current_time           (); //setup time function
;void gui_current_time_set_date  ();	//setup date function
;void gui_current_time_set_time  ();	//setup time function
;void exe_current_time           (int command);	//excute choosen command
;void exe_set_date               (int command);	//put current setup date to ds1307 register
;void exe_set_time               (int command);	//put current setup time to ds1307 register
;
;int choose_week_day() {
; 0000 0021 int choose_week_day() {
_choose_week_day:
; .FSTART _choose_week_day
;    int i;
;    while (1) {
	ST   -Y,R17
	ST   -Y,R16
;	i -> R16,R17
;        i = 1;
	CALL SUBOPT_0x40
;        clrscr();
;        gui_set_title("WEEK DAY");
	__POINTW2MN _0x1BF,0
	CALL SUBOPT_0x57
;        glcd_setfont(big_letter_10x14);
;        glcd_outtextxyf(25,22,name_week_day[i]); //sunday
	CALL SUBOPT_0x55
;        glcd_outtext("@"); //dau mui ten xuong
	__POINTW2MN _0x1BF,9
	CALL SUBOPT_0x48
;        glcd_setfont(font5x7);
;        glcd_putcharxy(x - 7,y,' '); //xoa dau >
	CALL SUBOPT_0x21
;        while(1) {
_0x1C0:
;            if (btn_enter) {
	SBIC 0x19,3
	RJMP _0x1C3
;                while (btn_enter);
_0x1C4:
	SBIS 0x19,3
	RJMP _0x1C4
;                return i;
	MOVW R30,R16
	RJMP _0x216000F
;            }
;            if (btn_back) {
_0x1C3:
	SBIC 0x19,4
	RJMP _0x1C7
;                while (btn_back);
_0x1C8:
	SBIS 0x19,4
	RJMP _0x1C8
;                if (i == 7) {
	LDI  R30,LOW(7)
	LDI  R31,HIGH(7)
	CP   R30,R16
	CPC  R31,R17
	BRNE _0x1CB
;                    i = 1;
	__GETWRN 16,17,1
;                } else {
	RJMP _0x1CC
_0x1CB:
;                    i++;
	__ADDWRN 16,17,1
;                }
_0x1CC:
;                glcd_setfont(big_letter_10x14);
	CALL SUBOPT_0xE
;                glcd_outtextxyf(25,22,name_week_day[i]);
	CALL SUBOPT_0x55
;                glcd_outtext("@"); //dau mui ten xuong
	__POINTW2MN _0x1BF,11
	CALL SUBOPT_0x48
;                glcd_setfont(font5x7);
;            }
;            if (btn_menu) {
_0x1C7:
	SBIC 0x19,5
	RJMP _0x1CD
;                while (btn_menu);
_0x1CE:
	SBIS 0x19,5
	RJMP _0x1CE
;                return week_day;
	MOV  R30,R6
	LDI  R31,0
	RJMP _0x216000F
;            }
;        }
_0x1CD:
	RJMP _0x1C0
;    }
;}
; .FEND

	.DSEG
_0x1BF:
	.BYTE 0xD
;int choose_day() {

	.CSEG
_choose_day:
; .FSTART _choose_day
;    int i;
;    while (1) {
	ST   -Y,R17
	ST   -Y,R16
;	i -> R16,R17
;        i = 1;
	CALL SUBOPT_0x40
;        clrscr();
;        gui_set_title("DAY");
	__POINTW2MN _0x1D4,0
	CALL SUBOPT_0x57
;        glcd_setfont(big_letter_10x14);
;            glcd_outtextxyf(25,22,name_day[i]); //01
	CALL SUBOPT_0x58
;            glcd_outtext("@"); //dau mui ten xuong
	__POINTW2MN _0x1D4,4
	CALL SUBOPT_0x48
;        glcd_setfont(font5x7);
;        glcd_putcharxy(x - 7,y,' '); //xoa dau >
	CALL SUBOPT_0x21
;        while(1) {
_0x1D5:
;            if (btn_enter) {
	SBIC 0x19,3
	RJMP _0x1D8
;                while (btn_enter);
_0x1D9:
	SBIS 0x19,3
	RJMP _0x1D9
;                return i;
	MOVW R30,R16
	RJMP _0x216000F
;            }
;            if (btn_back) {
_0x1D8:
	SBIC 0x19,4
	RJMP _0x1DC
;                while (btn_back);
_0x1DD:
	SBIS 0x19,4
	RJMP _0x1DD
;                if (i == 31) {
	LDI  R30,LOW(31)
	LDI  R31,HIGH(31)
	CP   R30,R16
	CPC  R31,R17
	BRNE _0x1E0
;                    i = 1;
	__GETWRN 16,17,1
;                } else {
	RJMP _0x1E1
_0x1E0:
;                    i++;
	__ADDWRN 16,17,1
;                }
_0x1E1:
;                glcd_setfont(big_letter_10x14);
	CALL SUBOPT_0xE
;                    glcd_outtextxyf(25,22,name_day[i]);
	CALL SUBOPT_0x58
;                    glcd_outtext("@"); //dau mui ten xuong
	__POINTW2MN _0x1D4,6
	CALL SUBOPT_0x48
;                glcd_setfont(font5x7);
;            }
;            if (btn_menu) {
_0x1DC:
	SBIC 0x19,5
	RJMP _0x1E2
;                while (btn_menu);
_0x1E3:
	SBIS 0x19,5
	RJMP _0x1E3
;                return day;
	MOV  R30,R13
	LDI  R31,0
	RJMP _0x216000F
;            }
;        }
_0x1E2:
	RJMP _0x1D5
;    }
;}
; .FEND

	.DSEG
_0x1D4:
	.BYTE 0x8
;int choose_month() {

	.CSEG
_choose_month:
; .FSTART _choose_month
;    int i;
;    while (1) {
	ST   -Y,R17
	ST   -Y,R16
;	i -> R16,R17
;        i = 1;
	CALL SUBOPT_0x40
;        clrscr();
;        gui_set_title("MONTH");
	__POINTW2MN _0x1E9,0
	CALL SUBOPT_0x57
;        glcd_setfont(big_letter_10x14);
;            glcd_outtextxyf(25,22,name_month[i]); //01
	CALL SUBOPT_0x59
;            glcd_outtext("@"); //dau mui ten xuong
	__POINTW2MN _0x1E9,6
	CALL SUBOPT_0x48
;        glcd_setfont(font5x7);
;        glcd_putcharxy(x - 7,y,' '); //xoa dau >
	CALL SUBOPT_0x21
;        while(1) {
_0x1EA:
;            if (btn_enter) {
	SBIC 0x19,3
	RJMP _0x1ED
;                while (btn_enter);
_0x1EE:
	SBIS 0x19,3
	RJMP _0x1EE
;                return i;
	MOVW R30,R16
	RJMP _0x216000F
;            }
;            if (btn_back) {
_0x1ED:
	SBIC 0x19,4
	RJMP _0x1F1
;                while (btn_back);
_0x1F2:
	SBIS 0x19,4
	RJMP _0x1F2
;                if (i == 12) {
	LDI  R30,LOW(12)
	LDI  R31,HIGH(12)
	CP   R30,R16
	CPC  R31,R17
	BRNE _0x1F5
;                    i = 1;
	__GETWRN 16,17,1
;                } else {
	RJMP _0x1F6
_0x1F5:
;                    i++;
	__ADDWRN 16,17,1
;                }
_0x1F6:
;                glcd_setfont(big_letter_10x14);
	CALL SUBOPT_0xE
;                    glcd_outtextxyf(25,22,name_month[i]);
	CALL SUBOPT_0x59
;                    glcd_outtext("@"); //dau mui ten xuong
	__POINTW2MN _0x1E9,8
	CALL SUBOPT_0x48
;                glcd_setfont(font5x7);
;            }
;            if (btn_menu) {
_0x1F1:
	SBIC 0x19,5
	RJMP _0x1F7
;                while (btn_menu);
_0x1F8:
	SBIS 0x19,5
	RJMP _0x1F8
;                return month;
	MOV  R30,R12
	LDI  R31,0
	RJMP _0x216000F
;            }
;
;        }
_0x1F7:
	RJMP _0x1EA
;    }
;}
; .FEND

	.DSEG
_0x1E9:
	.BYTE 0xA
;int choose_year() {

	.CSEG
_choose_year:
; .FSTART _choose_year
;    int i;
;    while (1) {
	ST   -Y,R17
	ST   -Y,R16
;	i -> R16,R17
;        i = 0;
	CALL SUBOPT_0x4E
;        clrscr();
;        gui_set_title("YEAR");
	__POINTW2MN _0x1FE,0
	CALL SUBOPT_0x57
;        glcd_setfont(big_letter_10x14);
;            glcd_outtextxyf(15,22,name_year[i]); //2017
	CALL SUBOPT_0x5A
;            glcd_outtext("@"); //dau mui ten xuong
	__POINTW2MN _0x1FE,5
	CALL SUBOPT_0x48
;        glcd_setfont(font5x7);
;        glcd_putcharxy(x - 7,y,' '); //xoa dau >
	CALL SUBOPT_0x21
;        while(1) {
_0x1FF:
;            if (btn_enter) {
	SBIC 0x19,3
	RJMP _0x202
;                while (btn_enter);
_0x203:
	SBIS 0x19,3
	RJMP _0x203
;                return i;
	MOVW R30,R16
	RJMP _0x216000F
;            }
;            if (btn_back) {
_0x202:
	SBIC 0x19,4
	RJMP _0x206
;                while (btn_back);
_0x207:
	SBIS 0x19,4
	RJMP _0x207
;                if (i == (2032 - 2017)) {
	LDI  R30,LOW(15)
	LDI  R31,HIGH(15)
	CP   R30,R16
	CPC  R31,R17
	BRNE _0x20A
;                    i = 0;
	__GETWRN 16,17,0
;                } else {
	RJMP _0x20B
_0x20A:
;                    i++;
	__ADDWRN 16,17,1
;                }
_0x20B:
;                glcd_setfont(big_letter_10x14);
	CALL SUBOPT_0xE
;                    glcd_outtextxyf(15,22,name_year[i]);
	CALL SUBOPT_0x5A
;                    glcd_outtext("@"); //dau mui ten xuong
	__POINTW2MN _0x1FE,7
	CALL SUBOPT_0x48
;                glcd_setfont(font5x7);
;            }
;            if (btn_menu) {
_0x206:
	SBIC 0x19,5
	RJMP _0x20C
;                while (btn_menu);
_0x20D:
	SBIS 0x19,5
	RJMP _0x20D
;                return year;
	LDS  R30,_year
	LDI  R31,0
	RJMP _0x216000F
;            }
;        }
_0x20C:
	RJMP _0x1FF
;    }
;}
; .FEND

	.DSEG
_0x1FE:
	.BYTE 0x9
;int choose_hour() {

	.CSEG
_choose_hour:
; .FSTART _choose_hour
;    int i;
;    while (1) {
	ST   -Y,R17
	ST   -Y,R16
;	i -> R16,R17
;        i = 0;
	CALL SUBOPT_0x4E
;        clrscr();
;        gui_set_title("HOUR");
	__POINTW2MN _0x213,0
	CALL SUBOPT_0x57
;        glcd_setfont(big_letter_10x14);
;            glcd_outtextxyf(25,22,name_hour[i]); // 0h
	CALL SUBOPT_0x51
;            glcd_outtext("@"); //dau mui ten xuong
	__POINTW2MN _0x213,5
	CALL SUBOPT_0x48
;        glcd_setfont(font5x7);
;        glcd_putcharxy(x - 7,y,' '); //xoa dau >
	CALL SUBOPT_0x21
;        while(1) {
_0x214:
;            if (btn_enter) {
	SBIC 0x19,3
	RJMP _0x217
;                while (btn_enter);
_0x218:
	SBIS 0x19,3
	RJMP _0x218
;                return i;
	MOVW R30,R16
	RJMP _0x216000F
;            }
;            if (btn_back) {
_0x217:
	SBIC 0x19,4
	RJMP _0x21B
;                while (btn_back);
_0x21C:
	SBIS 0x19,4
	RJMP _0x21C
;                if (i == 23) {
	LDI  R30,LOW(23)
	LDI  R31,HIGH(23)
	CP   R30,R16
	CPC  R31,R17
	BRNE _0x21F
;                    i = 0;
	__GETWRN 16,17,0
;                } else {
	RJMP _0x220
_0x21F:
;                    i++;
	__ADDWRN 16,17,1
;                }
_0x220:
;                glcd_setfont(big_letter_10x14);
	CALL SUBOPT_0xE
;                    glcd_outtextxyf(25,22,name_hour[i]);
	CALL SUBOPT_0x51
;                    glcd_outtext("@"); //dau mui ten xuong
	__POINTW2MN _0x213,7
	CALL SUBOPT_0x48
;                glcd_setfont(font5x7);
;            }
;            if (btn_menu) {
_0x21B:
	SBIC 0x19,5
	RJMP _0x221
;                while (btn_menu);
_0x222:
	SBIS 0x19,5
	RJMP _0x222
;                return hour;
	LDS  R30,_hour
	LDI  R31,0
	RJMP _0x216000F
;            }
;        }
_0x221:
	RJMP _0x214
;    }
;}
; .FEND

	.DSEG
_0x213:
	.BYTE 0x9
;int choose_minute() {

	.CSEG
_choose_minute:
; .FSTART _choose_minute
;    int i;
;    while (1) {
	ST   -Y,R17
	ST   -Y,R16
;	i -> R16,R17
;        i = 0;
	CALL SUBOPT_0x4E
;        clrscr();
;        gui_set_title("MINUTE");
	__POINTW2MN _0x228,0
	CALL SUBOPT_0x57
;        glcd_setfont(big_letter_10x14);
;            glcd_outtextxyf(25,22,name_minute[i]); // 0h
	CALL SUBOPT_0x5B
;            glcd_outtext("@"); //dau mui ten xuong
	__POINTW2MN _0x228,7
	CALL SUBOPT_0x48
;        glcd_setfont(font5x7);
;        glcd_putcharxy(x - 7,y,' '); //xoa dau >
	CALL SUBOPT_0x21
;        while(1) {
_0x229:
;            if (btn_enter) {
	SBIC 0x19,3
	RJMP _0x22C
;                while (btn_enter);
_0x22D:
	SBIS 0x19,3
	RJMP _0x22D
;                return i;
	MOVW R30,R16
	RJMP _0x216000F
;            }
;            if (btn_back) {
_0x22C:
	SBIC 0x19,4
	RJMP _0x230
;                while (btn_back);
_0x231:
	SBIS 0x19,4
	RJMP _0x231
;                if (i == 59) {
	LDI  R30,LOW(59)
	LDI  R31,HIGH(59)
	CP   R30,R16
	CPC  R31,R17
	BRNE _0x234
;                    i = 0;
	__GETWRN 16,17,0
;                } else {
	RJMP _0x235
_0x234:
;                    i++;
	__ADDWRN 16,17,1
;                }
_0x235:
;                glcd_setfont(big_letter_10x14);
	CALL SUBOPT_0xE
;                    glcd_outtextxyf(25,22,name_minute[i]);
	CALL SUBOPT_0x5B
;                    glcd_outtext("@"); //dau mui ten xuong
	__POINTW2MN _0x228,9
	CALL SUBOPT_0x48
;                glcd_setfont(font5x7);
;            }
;            if (btn_menu) {
_0x230:
	SBIC 0x19,5
	RJMP _0x236
;                while (btn_menu);
_0x237:
	SBIS 0x19,5
	RJMP _0x237
;                return minute;
	LDS  R30,_minute
	LDI  R31,0
	RJMP _0x216000F
;            }
;        }
_0x236:
	RJMP _0x229
;    }
;}
; .FEND

	.DSEG
_0x228:
	.BYTE 0xB
;int choose_second() {

	.CSEG
_choose_second:
; .FSTART _choose_second
;    int i;
;    while (1) {
	ST   -Y,R17
	ST   -Y,R16
;	i -> R16,R17
;        i = 0;
	CALL SUBOPT_0x4E
;        clrscr();
;        gui_set_title("SECOND");
	__POINTW2MN _0x23D,0
	CALL SUBOPT_0x57
;        glcd_setfont(big_letter_10x14);
;            glcd_outtextxyf(25,22,name_second[i]); // 0s
	CALL SUBOPT_0x5C
;            glcd_outtext("@"); //dau mui ten xuong
	__POINTW2MN _0x23D,7
	CALL SUBOPT_0x48
;        glcd_setfont(font5x7);
;        glcd_putcharxy(x - 7,y,' '); //xoa dau >
	CALL SUBOPT_0x21
;        while(1) {
_0x23E:
;            if (btn_enter) {
	SBIC 0x19,3
	RJMP _0x241
;                while (btn_enter);
_0x242:
	SBIS 0x19,3
	RJMP _0x242
;                return i;
	MOVW R30,R16
	RJMP _0x216000F
;            }
;            if (btn_back) {
_0x241:
	SBIC 0x19,4
	RJMP _0x245
;                while (btn_back);
_0x246:
	SBIS 0x19,4
	RJMP _0x246
;                if (i == 59) {
	LDI  R30,LOW(59)
	LDI  R31,HIGH(59)
	CP   R30,R16
	CPC  R31,R17
	BRNE _0x249
;                    i = 0;
	__GETWRN 16,17,0
;                } else {
	RJMP _0x24A
_0x249:
;                    i++;
	__ADDWRN 16,17,1
;                }
_0x24A:
;                glcd_setfont(big_letter_10x14);
	CALL SUBOPT_0xE
;                    glcd_outtextxyf(25,22,name_second[i]);
	CALL SUBOPT_0x5C
;                    glcd_outtext("@"); //dau mui ten xuong
	__POINTW2MN _0x23D,9
	CALL SUBOPT_0x48
;                glcd_setfont(font5x7);
;            }
;            if (btn_menu) {
_0x245:
	SBIC 0x19,5
	RJMP _0x24B
;                while (btn_menu);
_0x24C:
	SBIS 0x19,5
	RJMP _0x24C
;                return second;
	LDS  R30,_second
	LDI  R31,0
	RJMP _0x216000F
;            }
;        }
_0x24B:
	RJMP _0x23E
;    }
;}
_0x216000F:
	LD   R16,Y+
	LD   R17,Y+
	RET
; .FEND

	.DSEG
_0x23D:
	.BYTE 0xB
;void gui_current_time() {

	.CSEG
_gui_current_time:
; .FSTART _gui_current_time
;    int erase_position = 0;
;    int command;
;    while (1) {
	CALL SUBOPT_0x15
;	erase_position -> R16,R17
;	command -> R18,R19
_0x24F:
;        command = 1;
	CALL SUBOPT_0x5D
;        clrscr();
;        gui_set_title("SET TIME");
	__POINTW2MN _0x252,0
	CALL SUBOPT_0x16
;        gui_set_choice(y + NEW_LINE * 0, "Set Date");
	__POINTW2MN _0x252,9
	CALL SUBOPT_0x17
;        gui_set_choice(y + NEW_LINE * 1, "Set Time");
	__POINTW2MN _0x252,18
	CALL _gui_set_choice
;        while (1) {
_0x253:
;            if (btn_enter) {
	SBIC 0x19,3
	RJMP _0x256
;                while (btn_enter);
_0x257:
	SBIS 0x19,3
	RJMP _0x257
;                exe_current_time(command);
	MOVW R26,R18
	RCALL _exe_current_time
;                break;
	RJMP _0x255
;            }
;            if (btn_back) {
_0x256:
	SBIC 0x19,4
	RJMP _0x25A
;                while (btn_back);
_0x25B:
	SBIS 0x19,4
	RJMP _0x25B
;                command++;
	__ADDWRN 18,19,1
;                y += NEW_LINE;
	MOVW R30,R10
	ADIW R30,8
	MOVW R10,R30
;
;                if (command > 2) {
	__CPWRN 18,19,3
	BRLT _0x25E
;                    erase_position  =   2;
	__GETWRN 16,17,2
;                    command         =   1;
	__GETWRN 18,19,1
;                    y               =   15;
	LDI  R30,LOW(15)
	LDI  R31,HIGH(15)
	MOVW R10,R30
;                }
;                gui_cursor_move(erase_position);
_0x25E:
	CALL SUBOPT_0x1C
;                erase_position      =   0;
;            }
;            if (btn_menu) {
_0x25A:
	SBIC 0x19,5
	RJMP _0x25F
;                while(btn_menu);
_0x260:
	SBIS 0x19,5
	RJMP _0x260
;                return;
	CALL __LOADLOCR4
	RJMP _0x216000D
;            }
;        }
_0x25F:
	RJMP _0x253
_0x255:
;
;    }
	RJMP _0x24F
;}
; .FEND

	.DSEG
_0x252:
	.BYTE 0x1B
;void gui_current_time_set_date() {

	.CSEG
_gui_current_time_set_date:
; .FSTART _gui_current_time_set_date
;    int erase_position = 0;
;    int command;
;    while (1) {
	CALL SUBOPT_0x15
;	erase_position -> R16,R17
;	command -> R18,R19
_0x263:
;        command = 1;
	CALL SUBOPT_0x5D
;        clrscr();
;        gui_set_title("SET DATE");
	__POINTW2MN _0x266,0
	CALL SUBOPT_0x16
;        gui_set_choice(y + NEW_LINE * 0, "Week day");
	__POINTW2MN _0x266,9
	CALL SUBOPT_0x17
;        gui_set_choice(y + NEW_LINE * 1, "Day");
	__POINTW2MN _0x266,18
	CALL SUBOPT_0x18
;        gui_set_choice(y + NEW_LINE * 2, "Month");
	__POINTW2MN _0x266,22
	CALL SUBOPT_0x19
;        gui_set_choice(y + NEW_LINE * 3, "Year");
	__POINTW2MN _0x266,28
	CALL _gui_set_choice
;        while (1) {
_0x267:
;            if (btn_enter) {
	SBIC 0x19,3
	RJMP _0x26A
;                while(btn_enter);
_0x26B:
	SBIS 0x19,3
	RJMP _0x26B
;                exe_set_date(command);
	MOVW R26,R18
	RCALL _exe_set_date
;                break;
	RJMP _0x269
;            }
;            if (btn_back) {
_0x26A:
	SBIC 0x19,4
	RJMP _0x26E
;                while(btn_back);
_0x26F:
	SBIS 0x19,4
	RJMP _0x26F
;
;                command++;
	CALL SUBOPT_0x1A
;                y += NEW_LINE;
;                if (command > 4) {
	BRLT _0x272
;                    erase_position      =   4;
	CALL SUBOPT_0x1B
;                    command             =   1;
;                    y                   =   15;
;                }
;                gui_cursor_move(erase_position);
_0x272:
	CALL SUBOPT_0x1C
;                erase_position          =   0;
;            }
;            if (btn_menu) {
_0x26E:
	SBIC 0x19,5
	RJMP _0x273
;                while(btn_menu);
_0x274:
	SBIS 0x19,5
	RJMP _0x274
;                return;
	CALL __LOADLOCR4
	RJMP _0x216000D
;            }
;        }
_0x273:
	RJMP _0x267
_0x269:
;    }
	RJMP _0x263
;}
; .FEND

	.DSEG
_0x266:
	.BYTE 0x21
;void gui_current_time_set_time() {

	.CSEG
_gui_current_time_set_time:
; .FSTART _gui_current_time_set_time
;    int erase_position = 0;
;    int command;
;    while (1) {
	CALL SUBOPT_0x15
;	erase_position -> R16,R17
;	command -> R18,R19
_0x277:
;        command = 1;
	CALL SUBOPT_0x5D
;        clrscr();
;        gui_set_title("SET TIME");
	__POINTW2MN _0x27A,0
	CALL SUBOPT_0x16
;        gui_set_choice(y + NEW_LINE * 0, "Hour");
	__POINTW2MN _0x27A,9
	CALL SUBOPT_0x17
;        gui_set_choice(y + NEW_LINE * 1, "Minute");
	__POINTW2MN _0x27A,14
	CALL SUBOPT_0x18
;        gui_set_choice(y + NEW_LINE * 2, "Second");
	__POINTW2MN _0x27A,21
	CALL _gui_set_choice
;        while (1) {
_0x27B:
;            if (btn_enter) {
	SBIC 0x19,3
	RJMP _0x27E
;                while(btn_enter);
_0x27F:
	SBIS 0x19,3
	RJMP _0x27F
;                exe_set_time(command);
	MOVW R26,R18
	RCALL _exe_set_time
;                break;
	RJMP _0x27D
;            }
;            if (btn_back) {
_0x27E:
	SBIC 0x19,4
	RJMP _0x282
;                while(btn_back);
_0x283:
	SBIS 0x19,4
	RJMP _0x283
;                command++;
	__ADDWRN 18,19,1
;                y += NEW_LINE;
	MOVW R30,R10
	ADIW R30,8
	MOVW R10,R30
;                if (command > 3) {
	__CPWRN 18,19,4
	BRLT _0x286
;                    erase_position = 3;
	__GETWRN 16,17,3
;                    command = 1;
	__GETWRN 18,19,1
;                    y = 15;
	LDI  R30,LOW(15)
	LDI  R31,HIGH(15)
	MOVW R10,R30
;                }
;                gui_cursor_move(erase_position);
_0x286:
	CALL SUBOPT_0x1C
;                erase_position = 0;
;            }
;            if (btn_menu) {
_0x282:
	SBIC 0x19,5
	RJMP _0x287
;                while(btn_menu);
_0x288:
	SBIS 0x19,5
	RJMP _0x288
;                return;
	CALL __LOADLOCR4
	RJMP _0x216000D
;            }
;        }
_0x287:
	RJMP _0x27B
_0x27D:
;    }
	RJMP _0x277
;}
; .FEND

	.DSEG
_0x27A:
	.BYTE 0x1C
;void exe_current_time(int command) {

	.CSEG
_exe_current_time:
; .FSTART _exe_current_time
;    switch (command) {
	CALL SUBOPT_0x13
;	command -> Y+0
;        case 1:
	CPI  R30,LOW(0x1)
	LDI  R26,HIGH(0x1)
	CPC  R31,R26
	BRNE _0x28E
;            gui_current_time_set_date();
	RCALL _gui_current_time_set_date
;            return;
	JMP  _0x216000B
;        case 2:
_0x28E:
	CPI  R30,LOW(0x2)
	LDI  R26,HIGH(0x2)
	CPC  R31,R26
	BRNE _0x28D
;            gui_current_time_set_time();
	RCALL _gui_current_time_set_time
;            return;
	JMP  _0x216000B
;    }
_0x28D:
;}
	JMP  _0x216000B
; .FEND
;void exe_set_date(int command) {
_exe_set_date:
; .FSTART _exe_set_date
;    switch (command) {
	CALL SUBOPT_0x13
;	command -> Y+0
;        case 1:
	CPI  R30,LOW(0x1)
	LDI  R26,HIGH(0x1)
	CPC  R31,R26
	BRNE _0x293
;            week_day    =   choose_week_day();
	RCALL _choose_week_day
	MOV  R6,R30
;            rtc_set_date(week_day, day, month, year);
	CALL SUBOPT_0x5E
;            return;
	JMP  _0x216000B
;        case 2:
_0x293:
	CPI  R30,LOW(0x2)
	LDI  R26,HIGH(0x2)
	CPC  R31,R26
	BRNE _0x294
;            day         =   choose_day();
	RCALL _choose_day
	MOV  R13,R30
;            rtc_set_date(week_day, day, month, year);
	CALL SUBOPT_0x5E
;            return;
	JMP  _0x216000B
;        case 3:
_0x294:
	CPI  R30,LOW(0x3)
	LDI  R26,HIGH(0x3)
	CPC  R31,R26
	BRNE _0x295
;            month       =   choose_month();
	RCALL _choose_month
	MOV  R12,R30
;            rtc_set_date(week_day, day, month, year);
	CALL SUBOPT_0x5E
;            return;
	JMP  _0x216000B
;        case 4:
_0x295:
	CPI  R30,LOW(0x4)
	LDI  R26,HIGH(0x4)
	CPC  R31,R26
	BRNE _0x292
;            year        =   choose_year();
	RCALL _choose_year
	STS  _year,R30
;            rtc_set_date(week_day, day, month, year);
	CALL SUBOPT_0x5E
;            return;
	RJMP _0x216000B
;    }
_0x292:
;}
	RJMP _0x216000B
; .FEND
;void exe_set_time(int command) {
_exe_set_time:
; .FSTART _exe_set_time
;    switch (command) {
	CALL SUBOPT_0x13
;	command -> Y+0
;        case 1:
	CPI  R30,LOW(0x1)
	LDI  R26,HIGH(0x1)
	CPC  R31,R26
	BRNE _0x29A
;            hour        =   choose_hour();	//renew hour to ds1307 register
	RCALL _choose_hour
	STS  _hour,R30
;            rtc_set_time(hour, minute, second);
	CALL SUBOPT_0x5F
;            return;
	RJMP _0x216000B
;        case 2:
_0x29A:
	CPI  R30,LOW(0x2)
	LDI  R26,HIGH(0x2)
	CPC  R31,R26
	BRNE _0x29B
;            minute      =   choose_minute();
	RCALL _choose_minute
	STS  _minute,R30
;            rtc_set_time(hour, minute, second);
	CALL SUBOPT_0x5F
;            return;
	RJMP _0x216000B
;        case 3:
_0x29B:
	CPI  R30,LOW(0x3)
	LDI  R26,HIGH(0x3)
	CPC  R31,R26
	BRNE _0x299
;            second      =   choose_second();
	RCALL _choose_second
	STS  _second,R30
;            rtc_set_time(hour, minute, second);
	CALL SUBOPT_0x5F
;            return;
	RJMP _0x216000B
;    }
_0x299:
;}
	RJMP _0x216000B
; .FEND
;#include <init.c>
;interrupt [TIM0_OVF] void timer0_ovf_isr(void);
;void init_system(){
; 0000 0022 void init_system(){
_init_system:
; .FSTART _init_system
;GLCDINIT_t glcd_init_data;
;    {
	SBIW R28,8
;	glcd_init_data -> Y+0
;
;        DDRA=(1<<DDA7) | (1<<DDA6) | (0<<DDA5) | (0<<DDA4) | (0<<DDA3) | (1<<DDA2) | (0<<DDA1) | (0<<DDA0);
	LDI  R30,LOW(196)
	OUT  0x1A,R30
;        PORTA=(1<<PORTA7) | (1<<PORTA6) | (1<<PORTA5) | (1<<PORTA4) | (1<<PORTA3) | (1<<PORTA2) | (0<<PORTA1) | (0<<PORT ...
	LDI  R30,LOW(252)
	OUT  0x1B,R30
;
;
;        DDRB=(0<<DDB7) | (1<<DDB6) | (1<<DDB5) | (1<<DDB4) | (1<<DDB3) | (0<<DDB2) | (0<<DDB1) | (0<<DDB0);
	LDI  R30,LOW(120)
	OUT  0x17,R30
;        PORTB=(1<<PORTB7) | (1<<PORTB6) | (1<<PORTB5) | (1<<PORTB4) | (1<<PORTB3) | (1<<PORTB2) | (0<<PORTB1) | (0<<PORT ...
	LDI  R30,LOW(252)
	OUT  0x18,R30
;
;        DDRC=(1<<DDC7) | (1<<DDC6) | (0<<DDC5) | (0<<DDC4) | (0<<DDC3) | (0<<DDC2) | (0<<DDC1) | (0<<DDC0);
	LDI  R30,LOW(192)
	OUT  0x14,R30
;        PORTC=(1<<PORTC7) | (0<<PORTC6) | (0<<PORTC5) | (0<<PORTC4) | (0<<PORTC3) | (0<<PORTC2) | (0<<PORTC1) | (0<<PORT ...
	LDI  R30,LOW(128)
	OUT  0x15,R30
;
;        DDRD=(1<<DDD7) | (0<<DDD6) | (0<<DDD5) | (1<<DDD4) | (0<<DDD3) | (0<<DDD2) | (0<<DDD1) | (0<<DDD0);
	LDI  R30,LOW(144)
	OUT  0x11,R30
;        PORTD=(1<<PORTD7) | (0<<PORTD6) | (0<<PORTD5) | (1<<PORTD4) | (0<<PORTD3) | (0<<PORTD2) | (0<<PORTD1) | (0<<PORT ...
	OUT  0x12,R30
;
;        DDRE=(0<<DDE7) | (0<<DDE6) | (0<<DDE5) | (0<<DDE4) | (0<<DDE3) | (0<<DDE2) | (0<<DDE1) | (0<<DDE0);
	LDI  R30,LOW(0)
	OUT  0x2,R30
;        PORTE=(0<<PORTE7) | (0<<PORTE6) | (0<<PORTE5) | (0<<PORTE4) | (0<<PORTE3) | (0<<PORTE2) | (0<<PORTE1) | (0<<PORT ...
	OUT  0x3,R30
;
;        DDRF=(0<<DDF7) | (0<<DDF6) | (0<<DDF5) | (0<<DDF4) | (0<<DDF3) | (0<<DDF2) | (0<<DDF1) | (0<<DDF0);
	STS  97,R30
;        PORTF=(0<<PORTF7) | (0<<PORTF6) | (0<<PORTF5) | (0<<PORTF4) | (0<<PORTF3) | (0<<PORTF2) | (0<<PORTF1) | (0<<PORT ...
	STS  98,R30
;
;        DDRG=(0<<DDG4) | (0<<DDG3) | (0<<DDG2) | (0<<DDG1) | (0<<DDG0);
	STS  100,R30
;        PORTG=(0<<PORTG4) | (0<<PORTG3) | (0<<PORTG2) | (0<<PORTG1) | (0<<PORTG0);
	STS  101,R30
;
;        // Timer Period: 20 ms
;        ASSR=0<<AS0;
	OUT  0x30,R30
;        TCCR0=(0<<WGM00) | (0<<COM01) | (0<<COM00) | (0<<WGM01) | (1<<CS02) | (1<<CS01) | (1<<CS00);
	LDI  R30,LOW(7)
	OUT  0x33,R30
;        TCNT0=0x64;
	LDI  R30,LOW(100)
	OUT  0x32,R30
;        OCR0=0x00;
	LDI  R30,LOW(0)
	OUT  0x31,R30
;
;
;        TIMSK=(0<<OCIE2) | (0<<TOIE2) | (0<<TICIE1) | (0<<OCIE1A) | (0<<OCIE1B) | (0<<TOIE1) | (0<<OCIE0) | (1<<TOIE0);
	LDI  R30,LOW(1)
	OUT  0x37,R30
;        ETIMSK=(0<<TICIE3) | (0<<OCIE3A) | (0<<OCIE3B) | (0<<TOIE3) | (0<<OCIE3C) | (0<<OCIE1C);
	LDI  R30,LOW(0)
	STS  125,R30
;
;        // USART1 2400 double
;        UCSR1A=(0<<RXC1) | (0<<TXC1) | (0<<UDRE1) | (0<<FE1) | (0<<DOR1) | (0<<UPE1) | (0<<U2X1) | (0<<MPCM1);
	STS  155,R30
;        UCSR1B=(1<<RXCIE1) | (1<<TXCIE1) | (0<<UDRIE1) | (1<<RXEN1) | (1<<TXEN1) | (0<<UCSZ12) | (0<<RXB81) | (0<<TXB81) ...
	LDI  R30,LOW(216)
	STS  154,R30
;        UCSR1C=(0<<UMSEL1) | (0<<UPM11) | (0<<UPM10) | (0<<USBS1) | (1<<UCSZ11) | (1<<UCSZ10) | (0<<UCPOL1);
	LDI  R30,LOW(6)
	STS  157,R30
;        UBRR1H=0x00;
	LDI  R30,LOW(0)
	STS  152,R30
;        UBRR1L=0x33;
	LDI  R30,LOW(51)
	STS  153,R30
;
;        i2c_init(); //100khz
	CALL _i2c_init
;        rtc_init(3,1,0); //32768Hz
	LDI  R30,LOW(3)
	ST   -Y,R30
	LDI  R30,LOW(1)
	ST   -Y,R30
	LDI  R26,LOW(0)
	RCALL _rtc_init
;
;        glcd_init_data.font=font5x7;
	LDI  R30,LOW(_font5x7*2)
	LDI  R31,HIGH(_font5x7*2)
	ST   Y,R30
	STD  Y+1,R31
;        glcd_init_data.temp_coef=89;
	LDD  R30,Y+6
	ANDI R30,LOW(0xFC)
	ORI  R30,1
	STD  Y+6,R30
;        glcd_init_data.bias=3;
	ANDI R30,LOW(0xE3)
	ORI  R30,LOW(0xC)
	STD  Y+6,R30
;        glcd_init_data.vlcd=59;  //55 //58
	LDD  R30,Y+7
	ANDI R30,LOW(0x80)
	ORI  R30,LOW(0x3B)
	STD  Y+7,R30
;        glcd_init(&glcd_init_data);
	MOVW R26,R28
	RCALL _glcd_init
;
;        #asm("sei")
	sei
;    }
;}
	RJMP _0x216000E
; .FEND
;interrupt[TIM0_OVF] void timer0_ovf_isr() {
_timer0_ovf_isr:
; .FSTART _timer0_ovf_isr
	CALL SUBOPT_0x27
;    unsigned char prev_sec = second;
;    int i = 0;
;    char b;
;    TCNT0 = 0x64; //20 ms
	CALL __SAVELOCR4
;	prev_sec -> R17
;	i -> R18,R19
;	b -> R16
	LDS  R17,_second
	__GETWRN 18,19,0
	LDI  R30,LOW(100)
	OUT  0x32,R30
;    milisec += 20;
	LDS  R30,_milisec
	LDS  R31,_milisec+1
	LDS  R22,_milisec+2
	LDS  R23,_milisec+3
	__ADDD1N 20
	STS  _milisec,R30
	STS  _milisec+1,R31
	STS  _milisec+2,R22
	STS  _milisec+3,R23
;    dem++ ;
	LDI  R26,LOW(_dem)
	LDI  R27,HIGH(_dem)
	CALL __GETD1P_INC
	__SUBD1N -1
	CALL __PUTDP1_DEC
;    if (milisec % 60000 == 0) { //60 secs
	CALL SUBOPT_0x2A
	__GETD1N 0xEA60
	CALL __MODD21U
	CALL __CPD10
	BREQ PC+2
	RJMP _0x29D
;    	for (i = 1; i <= 5; i++) {
	__GETWRN 18,19,1
_0x29F:
	__CPWRN 18,19,6
	BRLT PC+2
	RJMP _0x2A0
;    		node[i].alarm_time_m--;
	CALL SUBOPT_0x60
	SBIW R30,1
	CALL __EEPROMWRW
;    		if (node[i].alarm_time_m == 0) {
	CALL SUBOPT_0x60
	SBIW R30,0
	BRNE _0x2A1
;    			switch (i) {
	MOVW R30,R18
;    				case 1:
	CPI  R30,LOW(0x1)
	LDI  R26,HIGH(0x1)
	CPC  R31,R26
	BRNE _0x2A5
;    					relay_1 = !relay_1;
	SBIS 0x12,4
	RJMP _0x2A6
	CBI  0x12,4
	RJMP _0x2A7
_0x2A6:
	SBI  0x12,4
_0x2A7:
;    				break;
	RJMP _0x2A4
;    				case 2:
_0x2A5:
	CPI  R30,LOW(0x2)
	LDI  R26,HIGH(0x2)
	CPC  R31,R26
	BRNE _0x2A8
;    					relay_2 = !relay_2;
	SBIS 0x12,7
	RJMP _0x2A9
	CBI  0x12,7
	RJMP _0x2AA
_0x2A9:
	SBI  0x12,7
_0x2AA:
;    				break;
	RJMP _0x2A4
;    				case 3:
_0x2A8:
	CPI  R30,LOW(0x3)
	LDI  R26,HIGH(0x3)
	CPC  R31,R26
	BRNE _0x2AB
;    					relay_3 = !relay_3;
	SBIS 0x15,7
	RJMP _0x2AC
	CBI  0x15,7
	RJMP _0x2AD
_0x2AC:
	SBI  0x15,7
_0x2AD:
;    				break;
	RJMP _0x2A4
;    				case 4:
_0x2AB:
	CPI  R30,LOW(0x4)
	LDI  R26,HIGH(0x4)
	CPC  R31,R26
	BRNE _0x2AE
;    					relay_4 = !relay_4;
	SBIS 0x1B,7
	RJMP _0x2AF
	CBI  0x1B,7
	RJMP _0x2B0
_0x2AF:
	SBI  0x1B,7
_0x2B0:
;    				break;
	RJMP _0x2A4
;    				case 5:
_0x2AE:
	CPI  R30,LOW(0x5)
	LDI  R26,HIGH(0x5)
	CPC  R31,R26
	BRNE _0x2A4
;    					relay_5 = !relay_5;
	SBIS 0x1B,2
	RJMP _0x2B2
	CBI  0x1B,2
	RJMP _0x2B3
_0x2B2:
	SBI  0x1B,2
_0x2B3:
;                    break;
;                }
_0x2A4:
;                node[i].status = !node[i].status;
	__MULBNWRU 18,19,40
	SUBI R30,LOW(-_node)
	SBCI R31,HIGH(-_node)
	CALL SUBOPT_0x46
;            }
;        }
_0x2A1:
	__ADDWRN 18,19,1
	RJMP _0x29F
_0x2A0:
;      //  gprs_read();
;    }
;
;    //4
;   /* if(p4!=-1&&p4!=0)
;    {
;        dem4=0;
;        relay_4=ON;
;        a4=p4*50;
;        p4=-1;
;    }
;    if(p4==0){relay_4=OFF;} ;
;    if(dem4==a4){
;        relay_4=OFF;
;        a4=-1;
;        }
;    if(dem4<a4){
;        dem4++;
;    };
;    //3
;    if(p3!=-1&&p3!=0)
;    {
;        dem3=0;
;        relay_3=ON;
;        a3=p3*50;
;        p3=-1;
;    }
;    if(p3==0){relay_3=OFF;} ;
;        if(dem3==a3){
;            relay_3=OFF;
;            //delay_ms(1000);
;            a3=-1;
;        }
;        if(dem3<a3){
;            dem3++;
;           // glcd_putchar(final[1]);
;            //delay_ms(20);
;        };
;     //2
;     if(p2!=-1&&p2!=0)
;    {
;        dem2=0;
;        relay_2=ON;
;        a2=p2*50;
;        p2=-1;
;    }
;    if(p2==0){relay_2=OFF;} ;
;        if(dem2==a2){
;            relay_2=OFF;
;            a2=-1;
;        }
;        if(dem2<a2){
;            dem2++;
;        };
;    //1
;      if(p1!=-1&&p1!=0)
;    {
;        dem1=0;
;        relay_1=ON;
;        a1=p1*50;
;        p1=-1;
;    }
;    if(p1==0){relay_1=OFF;} ;
;        if(dem1==a1){
;            relay_1=OFF;
;            a1=-1;
;        }
;        if(dem1<a1){
;            dem1++;
;        };  */
;    // het
;   /*if (dem == 800) { //5 mins
;     // gprs_send();
;     is_show_clock = false;
;    glcd_setfont(font5x7);
;    glcd_clear();
;     glcd_outtextxy(0,30,final);
;     a++;
;      b=a+48;
;      glcd_putchar(b);
;      dem=0; //send cai gi do, sua lai trong ham send
;
;     }
;     if(a==5){glcd_outtextxy(0,20,"ok");}*/
;     //if (dem == 800) { //800*20 <=>16s
;      //  gprs_read();
;      //  gprs_send();
;      //  dem=0;
;
;    // }
;     if (is_show_clock) {
_0x29D:
	TST  R4
	BREQ _0x2B4
;        rtc_get_time(&hour, &minute, &second);
	CALL SUBOPT_0xD
;        if (second != prev_sec) {
	LDS  R26,_second
	CP   R17,R26
	BREQ _0x2B5
;            gui_print_time();
	CALL _gui_print_time
;        }
;        prev_sec = second;
_0x2B5:
	LDS  R17,_second
;        if (milisec % 500 == 0) {
	CALL SUBOPT_0x2A
	__GETD1N 0x1F4
	CALL __MODD21U
	CALL __CPD10
	BRNE _0x2B6
;            gui_colon_blink();
	CALL _gui_colon_blink
;        }
;    }
_0x2B6:
;    if (milisec > 4000000000) milisec = 0; //gioi han cua unsigned long
_0x2B4:
	CALL SUBOPT_0x2A
	__CPD2N 0xEE6B2801
	BRLO _0x2B7
	CALL SUBOPT_0x61
;    for (i = 1; i <= 5; i++) {
_0x2B7:
	__GETWRN 18,19,1
_0x2B9:
	__CPWRN 18,19,6
	BRLT PC+2
	RJMP _0x2BA
;        if ((node[i].active_hour[hour] == true) && (minute == 0)){
	__MULBNWRU 18,19,40
	__ADDW1MN _node,1
	MOVW R26,R30
	LDS  R30,_hour
	LDI  R31,0
	ADD  R26,R30
	ADC  R27,R31
	CALL __EEPROMRDB
	CPI  R30,LOW(0x1)
	BRNE _0x2BC
	LDS  R26,_minute
	CPI  R26,LOW(0x0)
	BREQ _0x2BD
_0x2BC:
	RJMP _0x2BB
_0x2BD:
;            switch (i) {
	MOVW R30,R18
;                case 1:
	CPI  R30,LOW(0x1)
	LDI  R26,HIGH(0x1)
	CPC  R31,R26
	BRNE _0x2C1
;                    relay_1                 =   ON;
	CALL SUBOPT_0x22
;                    node[1].status          =   ON;
;                    node[1].alarm_time_m    =   1;
	RJMP _0x2E9
;                break;
;                case 2:
_0x2C1:
	CPI  R30,LOW(0x2)
	LDI  R26,HIGH(0x2)
	CPC  R31,R26
	BRNE _0x2C4
;                    relay_2                 =   ON;
	CALL SUBOPT_0x23
;                    node[2].status          =   ON;
;                    node[2].alarm_time_m    =   1;
	RJMP _0x2E9
;                break;
;                case 3:
_0x2C4:
	CPI  R30,LOW(0x3)
	LDI  R26,HIGH(0x3)
	CPC  R31,R26
	BRNE _0x2C7
;                    relay_3                 =   ON;
	CALL SUBOPT_0x24
;                    node[3].status          =   ON;
;                    node[3].alarm_time_m    =   1;
	RJMP _0x2E9
;                break;
;                case 4:
_0x2C7:
	CPI  R30,LOW(0x4)
	LDI  R26,HIGH(0x4)
	CPC  R31,R26
	BRNE _0x2CA
;                    relay_4                 =   ON;
	CALL SUBOPT_0x25
;                    node[4].status          =   ON;
;                    node[4].alarm_time_m    =   1;
	RJMP _0x2E9
;                break;
;                case 5:
_0x2CA:
	CPI  R30,LOW(0x5)
	LDI  R26,HIGH(0x5)
	CPC  R31,R26
	BRNE _0x2C0
;                    relay_5                 =   ON;
	CALL SUBOPT_0x26
;                    node[5].status          =   ON;
;                    node[5].alarm_time_m    =   1;
_0x2E9:
	LDI  R30,LOW(1)
	LDI  R31,HIGH(1)
	CALL __EEPROMWRW
;                break;
;            }
_0x2C0:
;        }
;    }
_0x2BB:
	__ADDWRN 18,19,1
	RJMP _0x2B9
_0x2BA:
;
;}
	CALL __LOADLOCR4
	ADIW R28,4
	CALL SUBOPT_0x29
	RETI
; .FEND
;
;void main(void) {
; 0000 0024 void main(void) {
_main:
; .FSTART _main
; 0000 0025     init_system();
	RCALL _init_system
; 0000 0026     glcd_clear();
	RCALL _glcd_clear
; 0000 0027     milisec = 0;
	CALL SUBOPT_0x61
; 0000 0028     gui_init();
	CALL SUBOPT_0x1D
; 0000 0029     is_show_clock = true;
; 0000 002A 
; 0000 002B     init_sms();
	CALL _init_sms
; 0000 002C 	init_gprs();
	CALL _init_gprs
; 0000 002D 
; 0000 002E     Address1 = 0xA1;
	LDI  R30,LOW(161)
	STS  _Address1,R30
; 0000 002F     Address2 = 0xA2;
	LDI  R30,LOW(162)
	STS  _Address2,R30
; 0000 0030     Address3 = 0xA3;
	LDI  R30,LOW(163)
	STS  _Address3,R30
; 0000 0031     Address4 = 0xA4;
	LDI  R30,LOW(164)
	STS  _Address4,R30
; 0000 0032 
; 0000 0033     Common_Config();
	CALL _Common_Config
; 0000 0034     RX_Mode();
	CALL _RX_Mode
; 0000 0035     RX_Config_4();
	CALL _RX_Config_4
; 0000 0036 
; 0000 0037 
; 0000 0038     while (1) {
_0x2D0:
; 0000 0039     gprs_send();
	RCALL _gprs_send
; 0000 003A     delay_ms(200);
	LDI  R26,LOW(200)
	LDI  R27,0
	CALL _delay_ms
; 0000 003B     gprs_read();
	RCALL _gprs_read
; 0000 003C         if (IRQ == 0) {
	SBIC 0x16,7
	RJMP _0x2D3
; 0000 003D 			RX_Read();
	CALL _RX_Read
; 0000 003E 			node_info_examine(station_receive);
	LDI  R30,LOW(_station_receive)
	LDI  R31,HIGH(_station_receive)
	LDI  R26,12
	CALL __PUTPARL
	CALL _node_info_examine
; 0000 003F            // gprs_send();
; 0000 0040 		}
; 0000 0041         if(btn_menu) {
_0x2D3:
	SBIC 0x19,5
	RJMP _0x2D4
; 0000 0042             while(btn_menu);
_0x2D5:
	SBIS 0x19,5
	RJMP _0x2D5
; 0000 0043             is_show_clock = false;
	CLR  R4
; 0000 0044             gui_main_menu();
	CALL _gui_main_menu
; 0000 0045         }
; 0000 0046         if(btn_back) {
_0x2D4:
	SBIC 0x19,4
	RJMP _0x2D8
; 0000 0047          //  gprs_send();
; 0000 0048          sms_send("test");
	__POINTW2MN _0x2D9,0
	CALL _sms_send
; 0000 0049         }
; 0000 004A         if(btn_enter) {
_0x2D8:
	SBIC 0x19,3
	RJMP _0x2DA
; 0000 004B             while(btn_enter);
_0x2DB:
	SBIS 0x19,3
	RJMP _0x2DB
; 0000 004C             call();
	RCALL _call
; 0000 004D         }
; 0000 004E         //gprs_send();
; 0000 004F        // delay_ms(1000);
; 0000 0050        // gprs_read();
; 0000 0051     }
_0x2DA:
	RJMP _0x2D0
; 0000 0052 }
_0x2DE:
	RJMP _0x2DE
; .FEND

	.DSEG
_0x2D9:
	.BYTE 0x5
;
;
;

	.CSEG
_rtc_init:
; .FSTART _rtc_init
	ST   -Y,R26
	LDD  R30,Y+2
	ANDI R30,LOW(0x3)
	STD  Y+2,R30
	LDD  R30,Y+1
	CPI  R30,0
	BREQ _0x2000003
	LDD  R30,Y+2
	ORI  R30,0x10
	STD  Y+2,R30
_0x2000003:
	LD   R30,Y
	CPI  R30,0
	BREQ _0x2000004
	LDD  R30,Y+2
	ORI  R30,0x80
	STD  Y+2,R30
_0x2000004:
	CALL SUBOPT_0x62
	LDI  R26,LOW(7)
	CALL _i2c_write
	LDD  R26,Y+2
	CALL SUBOPT_0x63
	RJMP _0x216000C
; .FEND
_rtc_get_time:
; .FSTART _rtc_get_time
	ST   -Y,R27
	ST   -Y,R26
	CALL SUBOPT_0x62
	LDI  R26,LOW(0)
	CALL SUBOPT_0x63
	CALL SUBOPT_0x64
	CALL SUBOPT_0x65
	CALL SUBOPT_0x66
	CALL SUBOPT_0x67
	MOV  R26,R30
	CALL _bcd2bin
	LDD  R26,Y+4
	LDD  R27,Y+4+1
	ST   X,R30
	CALL _i2c_stop
	RJMP _0x2160009
; .FEND
_rtc_set_time:
; .FSTART _rtc_set_time
	ST   -Y,R26
	CALL SUBOPT_0x62
	LDI  R26,LOW(0)
	CALL SUBOPT_0x68
	CALL SUBOPT_0x69
	CALL SUBOPT_0x6A
	CALL SUBOPT_0x63
	RJMP _0x216000C
; .FEND
_rtc_get_date:
; .FSTART _rtc_get_date
	ST   -Y,R27
	ST   -Y,R26
	CALL SUBOPT_0x62
	LDI  R26,LOW(3)
	CALL SUBOPT_0x63
	CALL SUBOPT_0x64
	LDD  R26,Y+6
	LDD  R27,Y+6+1
	ST   X,R30
	CALL SUBOPT_0x66
	LDD  R26,Y+4
	LDD  R27,Y+4+1
	ST   X,R30
	CALL SUBOPT_0x66
	CALL SUBOPT_0x67
	CALL SUBOPT_0x65
	CALL _i2c_stop
_0x216000E:
	ADIW R28,8
	RET
; .FEND
_rtc_set_date:
; .FSTART _rtc_set_date
	ST   -Y,R26
	CALL SUBOPT_0x62
	LDI  R26,LOW(3)
	CALL _i2c_write
	LDD  R26,Y+3
	CALL SUBOPT_0x6A
	CALL SUBOPT_0x69
	CALL SUBOPT_0x68
	CALL SUBOPT_0x63
_0x216000D:
	ADIW R28,4
	RET
; .FEND
	#ifndef __SLEEP_DEFINED__
	#define __SLEEP_DEFINED__
	.EQU __se_bit=0x20
	.EQU __sm_mask=0x1C
	.EQU __sm_powerdown=0x10
	.EQU __sm_powersave=0x18
	.EQU __sm_standby=0x14
	.EQU __sm_ext_standby=0x1C
	.EQU __sm_adc_noise_red=0x08
	.SET power_ctrl_reg=mcucr
	#endif

	.CSEG
_pcd8544_delay_G101:
; .FSTART _pcd8544_delay_G101
	RET
; .FEND
_pcd8544_wrbus_G101:
; .FSTART _pcd8544_wrbus_G101
	ST   -Y,R26
	ST   -Y,R17
	CBI  0x15,2
	LDI  R17,LOW(8)
_0x2020004:
	RCALL _pcd8544_delay_G101
	LDD  R30,Y+1
	ANDI R30,LOW(0x80)
	BREQ _0x2020006
	SBI  0x15,4
	RJMP _0x2020007
_0x2020006:
	CBI  0x15,4
_0x2020007:
	LDD  R30,Y+1
	LSL  R30
	STD  Y+1,R30
	RCALL _pcd8544_delay_G101
	SBI  0x15,5
	RCALL _pcd8544_delay_G101
	CBI  0x15,5
	SUBI R17,LOW(1)
	BRNE _0x2020004
	SBI  0x15,2
	LDD  R17,Y+0
	RJMP _0x216000B
; .FEND
_pcd8544_wrcmd:
; .FSTART _pcd8544_wrcmd
	ST   -Y,R26
	CBI  0x15,3
	LD   R26,Y
	RCALL _pcd8544_wrbus_G101
	RJMP _0x216000A
; .FEND
_pcd8544_wrdata_G101:
; .FSTART _pcd8544_wrdata_G101
	ST   -Y,R26
	SBI  0x15,3
	LD   R26,Y
	RCALL _pcd8544_wrbus_G101
	RJMP _0x216000A
; .FEND
_pcd8544_setaddr_G101:
; .FSTART _pcd8544_setaddr_G101
	ST   -Y,R26
	ST   -Y,R17
	LDD  R30,Y+1
	LSR  R30
	LSR  R30
	LSR  R30
	MOV  R17,R30
	LDI  R30,LOW(84)
	MUL  R30,R17
	MOVW R30,R0
	MOVW R26,R30
	LDD  R30,Y+2
	LDI  R31,0
	ADD  R30,R26
	ADC  R31,R27
	STS  _gfx_addr_G101,R30
	STS  _gfx_addr_G101+1,R31
	MOV  R30,R17
	LDD  R17,Y+0
_0x216000C:
	ADIW R28,3
	RET
; .FEND
_pcd8544_gotoxy:
; .FSTART _pcd8544_gotoxy
	ST   -Y,R26
	LDD  R30,Y+1
	ORI  R30,0x80
	MOV  R26,R30
	RCALL _pcd8544_wrcmd
	LDD  R30,Y+1
	ST   -Y,R30
	LDD  R26,Y+1
	RCALL _pcd8544_setaddr_G101
	ORI  R30,0x40
	MOV  R26,R30
	RCALL _pcd8544_wrcmd
	RJMP _0x216000B
; .FEND
_pcd8544_rdbyte:
; .FSTART _pcd8544_rdbyte
	ST   -Y,R26
	LDD  R30,Y+1
	ST   -Y,R30
	LDD  R26,Y+1
	RCALL _pcd8544_gotoxy
	LDS  R30,_gfx_addr_G101
	LDS  R31,_gfx_addr_G101+1
	SUBI R30,LOW(-_gfx_buffer_G101)
	SBCI R31,HIGH(-_gfx_buffer_G101)
	LD   R30,Z
_0x216000B:
	ADIW R28,2
	RET
; .FEND
_pcd8544_wrbyte:
; .FSTART _pcd8544_wrbyte
	ST   -Y,R26
	CALL SUBOPT_0x6B
	SBIW R30,1
	SUBI R30,LOW(-_gfx_buffer_G101)
	SBCI R31,HIGH(-_gfx_buffer_G101)
	LD   R26,Y
	STD  Z+0,R26
	RCALL _pcd8544_wrdata_G101
	RJMP _0x216000A
; .FEND
_glcd_init:
; .FSTART _glcd_init
	ST   -Y,R27
	ST   -Y,R26
	CALL __SAVELOCR4
	SBI  0x14,2
	SBI  0x15,2
	SBI  0x14,5
	CBI  0x15,5
	SBI  0x14,4
	SBI  0x14,3
	SBI  0x14,1
	CBI  0x15,1
	LDI  R26,LOW(10)
	LDI  R27,0
	CALL _delay_ms
	SBI  0x15,1
	LDD  R30,Y+4
	LDD  R31,Y+4+1
	SBIW R30,0
	BREQ _0x2020008
	LDD  R30,Z+6
	ANDI R30,LOW(0x3)
	MOV  R17,R30
	LDD  R30,Y+4
	LDD  R31,Y+4+1
	LDD  R30,Z+6
	LSR  R30
	LSR  R30
	ANDI R30,LOW(0x7)
	MOV  R16,R30
	LDD  R30,Y+4
	LDD  R31,Y+4+1
	LDD  R30,Z+7
	ANDI R30,0x7F
	MOV  R19,R30
	LDD  R26,Y+4
	LDD  R27,Y+4+1
	CALL __GETW1P
	CALL SUBOPT_0xC
	LDD  R26,Y+4
	LDD  R27,Y+4+1
	ADIW R26,2
	CALL __GETW1P
	__PUTW1MN _glcd_state,25
	LDD  R26,Y+4
	LDD  R27,Y+4+1
	ADIW R26,4
	CALL __GETW1P
	RJMP _0x20200A0
_0x2020008:
	LDI  R17,LOW(0)
	LDI  R16,LOW(3)
	LDI  R19,LOW(50)
	LDI  R30,LOW(0)
	LDI  R31,HIGH(0)
	CALL SUBOPT_0xC
	LDI  R30,LOW(0)
	LDI  R31,HIGH(0)
	__PUTW1MN _glcd_state,25
_0x20200A0:
	__PUTW1MN _glcd_state,27
	LDI  R26,LOW(33)
	RCALL _pcd8544_wrcmd
	MOV  R30,R17
	ORI  R30,4
	MOV  R26,R30
	RCALL _pcd8544_wrcmd
	MOV  R30,R16
	ORI  R30,0x10
	MOV  R26,R30
	RCALL _pcd8544_wrcmd
	MOV  R30,R19
	ORI  R30,0x80
	MOV  R26,R30
	RCALL _pcd8544_wrcmd
	LDI  R26,LOW(32)
	RCALL _pcd8544_wrcmd
	LDI  R26,LOW(1)
	RCALL _glcd_display
	LDI  R30,LOW(1)
	STS  _glcd_state,R30
	LDI  R30,LOW(0)
	__PUTB1MN _glcd_state,1
	LDI  R30,LOW(1)
	__PUTB1MN _glcd_state,6
	__PUTB1MN _glcd_state,7
	__PUTB1MN _glcd_state,8
	LDI  R30,LOW(255)
	__PUTB1MN _glcd_state,9
	LDI  R30,LOW(1)
	__PUTB1MN _glcd_state,16
	__POINTW1MN _glcd_state,17
	ST   -Y,R31
	ST   -Y,R30
	LDI  R30,LOW(255)
	ST   -Y,R30
	LDI  R26,LOW(8)
	LDI  R27,0
	CALL _memset
	RCALL _glcd_clear
	LDI  R30,LOW(1)
	CALL __LOADLOCR4
	RJMP _0x2160009
; .FEND
_glcd_display:
; .FSTART _glcd_display
	ST   -Y,R26
	LD   R30,Y
	CPI  R30,0
	BREQ _0x202000A
	LDI  R30,LOW(12)
	RJMP _0x202000B
_0x202000A:
	LDI  R30,LOW(8)
_0x202000B:
	MOV  R26,R30
	RCALL _pcd8544_wrcmd
_0x216000A:
	ADIW R28,1
	RET
; .FEND
_glcd_clear:
; .FSTART _glcd_clear
	CALL __SAVELOCR4
	LDI  R19,0
	__GETB1MN _glcd_state,1
	CPI  R30,0
	BREQ _0x202000D
	LDI  R19,LOW(255)
_0x202000D:
	LDI  R30,LOW(0)
	ST   -Y,R30
	LDI  R26,LOW(0)
	RCALL _pcd8544_gotoxy
	__GETWRN 16,17,504
_0x202000E:
	MOVW R30,R16
	__SUBWRN 16,17,1
	SBIW R30,0
	BREQ _0x2020010
	MOV  R26,R19
	RCALL _pcd8544_wrbyte
	RJMP _0x202000E
_0x2020010:
	LDI  R30,LOW(0)
	ST   -Y,R30
	LDI  R26,LOW(0)
	RCALL _glcd_moveto
	CALL __LOADLOCR4
	JMP  _0x2160001
; .FEND
_glcd_putpixel:
; .FSTART _glcd_putpixel
	ST   -Y,R26
	ST   -Y,R17
	ST   -Y,R16
	LDD  R26,Y+4
	CPI  R26,LOW(0x54)
	BRSH _0x2020012
	LDD  R26,Y+3
	CPI  R26,LOW(0x30)
	BRLO _0x2020011
_0x2020012:
	LDD  R17,Y+1
	LDD  R16,Y+0
	JMP  _0x2160004
_0x2020011:
	LDD  R30,Y+4
	ST   -Y,R30
	LDD  R26,Y+4
	RCALL _pcd8544_rdbyte
	MOV  R17,R30
	LDD  R30,Y+3
	ANDI R30,LOW(0x7)
	LDI  R26,LOW(1)
	CALL __LSLB12
	MOV  R16,R30
	LDD  R30,Y+2
	CPI  R30,0
	BREQ _0x2020014
	OR   R17,R16
	RJMP _0x2020015
_0x2020014:
	MOV  R30,R16
	COM  R30
	AND  R17,R30
_0x2020015:
	MOV  R26,R17
	RCALL _pcd8544_wrbyte
	LDD  R17,Y+1
	LDD  R16,Y+0
	JMP  _0x2160004
; .FEND
_pcd8544_wrmasked_G101:
; .FSTART _pcd8544_wrmasked_G101
	ST   -Y,R26
	ST   -Y,R17
	LDD  R30,Y+5
	ST   -Y,R30
	LDD  R26,Y+5
	RCALL _pcd8544_rdbyte
	MOV  R17,R30
	LDD  R30,Y+1
	CPI  R30,LOW(0x7)
	BREQ _0x2020020
	CPI  R30,LOW(0x8)
	BRNE _0x2020021
_0x2020020:
	LDD  R30,Y+3
	ST   -Y,R30
	LDD  R26,Y+2
	CALL _glcd_mappixcolor1bit
	STD  Y+3,R30
	RJMP _0x2020022
_0x2020021:
	CPI  R30,LOW(0x3)
	BRNE _0x2020024
	LDD  R30,Y+3
	COM  R30
	STD  Y+3,R30
	RJMP _0x2020025
_0x2020024:
	CPI  R30,0
	BRNE _0x2020026
_0x2020025:
_0x2020022:
	LDD  R30,Y+2
	COM  R30
	AND  R17,R30
	RJMP _0x2020027
_0x2020026:
	CPI  R30,LOW(0x2)
	BRNE _0x2020028
_0x2020027:
	LDD  R30,Y+2
	LDD  R26,Y+3
	AND  R30,R26
	OR   R17,R30
	RJMP _0x202001E
_0x2020028:
	CPI  R30,LOW(0x1)
	BRNE _0x2020029
	LDD  R30,Y+2
	LDD  R26,Y+3
	AND  R30,R26
	EOR  R17,R30
	RJMP _0x202001E
_0x2020029:
	CPI  R30,LOW(0x4)
	BRNE _0x202001E
	LDD  R30,Y+2
	COM  R30
	LDD  R26,Y+3
	OR   R30,R26
	AND  R17,R30
_0x202001E:
	MOV  R26,R17
	RCALL _pcd8544_wrbyte
	LDD  R17,Y+0
_0x2160009:
	ADIW R28,6
	RET
; .FEND
_glcd_block:
; .FSTART _glcd_block
	ST   -Y,R26
	SBIW R28,3
	CALL __SAVELOCR6
	LDD  R26,Y+16
	CPI  R26,LOW(0x54)
	BRSH _0x202002C
	LDD  R26,Y+15
	CPI  R26,LOW(0x30)
	BRSH _0x202002C
	LDD  R26,Y+14
	CPI  R26,LOW(0x0)
	BREQ _0x202002C
	LDD  R26,Y+13
	CPI  R26,LOW(0x0)
	BRNE _0x202002B
_0x202002C:
	RJMP _0x2160008
_0x202002B:
	LDD  R30,Y+14
	STD  Y+8,R30
	LDD  R26,Y+16
	CLR  R27
	LDD  R30,Y+14
	LDI  R31,0
	ADD  R26,R30
	ADC  R27,R31
	CPI  R26,LOW(0x55)
	LDI  R30,HIGH(0x55)
	CPC  R27,R30
	BRLO _0x202002E
	LDD  R26,Y+16
	LDI  R30,LOW(84)
	SUB  R30,R26
	STD  Y+14,R30
_0x202002E:
	LDD  R18,Y+13
	LDD  R26,Y+15
	CLR  R27
	LDD  R30,Y+13
	LDI  R31,0
	ADD  R26,R30
	ADC  R27,R31
	SBIW R26,49
	BRLO _0x202002F
	LDD  R26,Y+15
	LDI  R30,LOW(48)
	SUB  R30,R26
	STD  Y+13,R30
_0x202002F:
	LDD  R26,Y+9
	CPI  R26,LOW(0x6)
	BREQ PC+2
	RJMP _0x2020030
	LDD  R30,Y+12
	CPI  R30,LOW(0x1)
	BRNE _0x2020034
	RJMP _0x2160008
_0x2020034:
	CPI  R30,LOW(0x3)
	BRNE _0x2020037
	__GETW1MN _glcd_state,27
	SBIW R30,0
	BRNE _0x2020036
	RJMP _0x2160008
_0x2020036:
_0x2020037:
	LDD  R16,Y+8
	LDD  R30,Y+13
	LSR  R30
	LSR  R30
	LSR  R30
	MOV  R19,R30
	MOV  R30,R18
	ANDI R30,LOW(0x7)
	BRNE _0x2020039
	LDD  R26,Y+13
	CP   R18,R26
	BREQ _0x2020038
_0x2020039:
	MOV  R26,R16
	CLR  R27
	MOV  R30,R19
	LDI  R31,0
	CALL __MULW12U
	LDD  R26,Y+10
	LDD  R27,Y+10+1
	CALL SUBOPT_0x6C
	LSR  R18
	LSR  R18
	LSR  R18
	MOV  R21,R19
_0x202003B:
	PUSH R21
	SUBI R21,-1
	MOV  R30,R18
	POP  R26
	CP   R30,R26
	BRLO _0x202003D
	MOV  R17,R16
_0x202003E:
	MOV  R30,R17
	SUBI R17,1
	CPI  R30,0
	BREQ _0x2020040
	CALL SUBOPT_0x6D
	RJMP _0x202003E
_0x2020040:
	RJMP _0x202003B
_0x202003D:
_0x2020038:
	LDD  R26,Y+14
	CP   R16,R26
	BREQ _0x2020041
	LDD  R30,Y+14
	LDD  R26,Y+10
	LDD  R27,Y+10+1
	LDI  R31,0
	CALL SUBOPT_0x6C
	LDD  R30,Y+13
	ANDI R30,LOW(0x7)
	BREQ _0x2020042
	SUBI R19,-LOW(1)
_0x2020042:
	LDI  R18,LOW(0)
_0x2020043:
	PUSH R18
	SUBI R18,-1
	MOV  R30,R19
	POP  R26
	CP   R26,R30
	BRSH _0x2020045
	LDD  R17,Y+14
_0x2020046:
	PUSH R17
	SUBI R17,-1
	MOV  R30,R16
	POP  R26
	CP   R26,R30
	BRSH _0x2020048
	CALL SUBOPT_0x6D
	RJMP _0x2020046
_0x2020048:
	LDD  R30,Y+14
	LDD  R26,Y+6
	LDD  R27,Y+6+1
	LDI  R31,0
	CALL SUBOPT_0x6C
	RJMP _0x2020043
_0x2020045:
_0x2020041:
_0x2020030:
	LDD  R30,Y+15
	ANDI R30,LOW(0x7)
	MOV  R19,R30
_0x2020049:
	LDD  R30,Y+13
	CPI  R30,0
	BRNE PC+2
	RJMP _0x202004B
	LDD  R30,Y+10
	LDD  R31,Y+10+1
	STD  Y+6,R30
	STD  Y+6+1,R31
	LDI  R17,LOW(0)
	LDD  R16,Y+16
	CPI  R19,0
	BREQ PC+2
	RJMP _0x202004C
	LDD  R26,Y+13
	CPI  R26,LOW(0x8)
	BRSH PC+2
	RJMP _0x202004D
	LDD  R30,Y+9
	CPI  R30,0
	BREQ _0x2020052
	CPI  R30,LOW(0x3)
	BRNE _0x2020053
_0x2020052:
	RJMP _0x2020054
_0x2020053:
	CPI  R30,LOW(0x7)
	BRNE _0x2020055
_0x2020054:
	RJMP _0x2020056
_0x2020055:
	CPI  R30,LOW(0x8)
	BRNE _0x2020057
_0x2020056:
	RJMP _0x2020058
_0x2020057:
	CPI  R30,LOW(0x9)
	BRNE _0x2020059
_0x2020058:
	RJMP _0x202005A
_0x2020059:
	CPI  R30,LOW(0xA)
	BRNE _0x202005B
_0x202005A:
	ST   -Y,R16
	LDD  R26,Y+16
	RCALL _pcd8544_gotoxy
	RJMP _0x2020050
_0x202005B:
	CPI  R30,LOW(0x6)
	BRNE _0x2020050
	CALL SUBOPT_0x6E
_0x2020050:
_0x202005D:
	PUSH R17
	SUBI R17,-1
	LDD  R30,Y+14
	POP  R26
	CP   R26,R30
	BRSH _0x202005F
	LDD  R26,Y+9
	CPI  R26,LOW(0x6)
	BRNE _0x2020060
	CALL SUBOPT_0x6F
	ST   -Y,R31
	ST   -Y,R30
	CALL SUBOPT_0x6B
	SBIW R30,1
	SUBI R30,LOW(-_gfx_buffer_G101)
	SBCI R31,HIGH(-_gfx_buffer_G101)
	LD   R26,Z
	CALL _glcd_writemem
	RJMP _0x2020061
_0x2020060:
	LDD  R30,Y+9
	CPI  R30,LOW(0x9)
	BRNE _0x2020065
	LDI  R21,LOW(0)
	RJMP _0x2020066
_0x2020065:
	CPI  R30,LOW(0xA)
	BRNE _0x2020064
	LDI  R21,LOW(255)
	RJMP _0x2020066
_0x2020064:
	CALL SUBOPT_0x6F
	CALL SUBOPT_0x70
	MOV  R21,R30
	LDD  R30,Y+9
	CPI  R30,LOW(0x7)
	BREQ _0x202006D
	CPI  R30,LOW(0x8)
	BRNE _0x202006E
_0x202006D:
_0x2020066:
	CALL SUBOPT_0x71
	MOV  R21,R30
	RJMP _0x202006F
_0x202006E:
	CPI  R30,LOW(0x3)
	BRNE _0x2020071
	COM  R21
	RJMP _0x2020072
_0x2020071:
	CPI  R30,0
	BRNE _0x2020074
_0x2020072:
_0x202006F:
	MOV  R26,R21
	RCALL _pcd8544_wrdata_G101
	RJMP _0x202006B
_0x2020074:
	CALL SUBOPT_0x72
	LDI  R30,LOW(255)
	ST   -Y,R30
	LDD  R26,Y+13
	RCALL _pcd8544_wrmasked_G101
_0x202006B:
_0x2020061:
	RJMP _0x202005D
_0x202005F:
	LDD  R30,Y+15
	SUBI R30,-LOW(8)
	STD  Y+15,R30
	LDD  R30,Y+13
	SUBI R30,LOW(8)
	STD  Y+13,R30
	RJMP _0x2020075
_0x202004D:
	LDD  R21,Y+13
	LDI  R18,LOW(0)
	LDI  R30,LOW(0)
	STD  Y+13,R30
	RJMP _0x2020076
_0x202004C:
	MOV  R30,R19
	LDD  R26,Y+13
	ADD  R26,R30
	CPI  R26,LOW(0x9)
	BRSH _0x2020077
	LDD  R18,Y+13
	LDI  R30,LOW(0)
	STD  Y+13,R30
	RJMP _0x2020078
_0x2020077:
	LDI  R30,LOW(8)
	SUB  R30,R19
	MOV  R18,R30
_0x2020078:
	ST   -Y,R19
	MOV  R26,R18
	CALL _glcd_getmask
	MOV  R20,R30
	LDD  R30,Y+9
	CPI  R30,LOW(0x6)
	BRNE _0x202007C
	CALL SUBOPT_0x6E
_0x202007D:
	PUSH R17
	SUBI R17,-1
	LDD  R30,Y+14
	POP  R26
	CP   R26,R30
	BRSH _0x202007F
	CALL SUBOPT_0x6B
	SBIW R30,1
	SUBI R30,LOW(-_gfx_buffer_G101)
	SBCI R31,HIGH(-_gfx_buffer_G101)
	LD   R30,Z
	AND  R30,R20
	MOV  R26,R30
	MOV  R30,R19
	CALL __LSRB12
	CALL SUBOPT_0x73
	MOV  R30,R19
	MOV  R26,R20
	CALL __LSRB12
	COM  R30
	AND  R30,R1
	OR   R21,R30
	CALL SUBOPT_0x6F
	ST   -Y,R31
	ST   -Y,R30
	MOV  R26,R21
	CALL _glcd_writemem
	RJMP _0x202007D
_0x202007F:
	RJMP _0x202007B
_0x202007C:
	CPI  R30,LOW(0x9)
	BRNE _0x2020080
	LDI  R21,LOW(0)
	RJMP _0x2020081
_0x2020080:
	CPI  R30,LOW(0xA)
	BRNE _0x2020087
	LDI  R21,LOW(255)
_0x2020081:
	CALL SUBOPT_0x71
	MOV  R26,R30
	MOV  R30,R19
	CALL __LSLB12
	MOV  R21,R30
_0x2020084:
	PUSH R17
	SUBI R17,-1
	LDD  R30,Y+14
	POP  R26
	CP   R26,R30
	BRSH _0x2020086
	CALL SUBOPT_0x72
	ST   -Y,R20
	LDI  R26,LOW(0)
	RCALL _pcd8544_wrmasked_G101
	RJMP _0x2020084
_0x2020086:
	RJMP _0x202007B
_0x2020087:
_0x2020088:
	PUSH R17
	SUBI R17,-1
	LDD  R30,Y+14
	POP  R26
	CP   R26,R30
	BRSH _0x202008A
	CALL SUBOPT_0x74
	MOV  R26,R30
	MOV  R30,R19
	CALL __LSLB12
	ST   -Y,R30
	ST   -Y,R20
	LDD  R26,Y+13
	RCALL _pcd8544_wrmasked_G101
	RJMP _0x2020088
_0x202008A:
_0x202007B:
	LDD  R30,Y+13
	CPI  R30,0
	BRNE _0x202008B
	RJMP _0x202004B
_0x202008B:
	LDD  R26,Y+13
	CPI  R26,LOW(0x8)
	BRSH _0x202008C
	LDD  R30,Y+13
	SUB  R30,R18
	MOV  R21,R30
	LDI  R30,LOW(0)
	RJMP _0x20200A1
_0x202008C:
	MOV  R21,R19
	LDD  R30,Y+13
	SUBI R30,LOW(8)
_0x20200A1:
	STD  Y+13,R30
	LDI  R17,LOW(0)
	LDD  R30,Y+15
	SUBI R30,-LOW(8)
	STD  Y+15,R30
	LDI  R30,LOW(8)
	SUB  R30,R19
	MOV  R18,R30
	LDD  R16,Y+16
	LDD  R30,Y+10
	LDD  R31,Y+10+1
	STD  Y+6,R30
	STD  Y+6+1,R31
_0x2020076:
	MOV  R30,R21
	LDI  R31,0
	SUBI R30,LOW(-__glcd_mask*2)
	SBCI R31,HIGH(-__glcd_mask*2)
	LPM  R20,Z
	LDD  R30,Y+9
	CPI  R30,LOW(0x6)
	BRNE _0x2020091
	CALL SUBOPT_0x6E
_0x2020092:
	PUSH R17
	SUBI R17,-1
	LDD  R30,Y+14
	POP  R26
	CP   R26,R30
	BRSH _0x2020094
	CALL SUBOPT_0x6B
	SBIW R30,1
	SUBI R30,LOW(-_gfx_buffer_G101)
	SBCI R31,HIGH(-_gfx_buffer_G101)
	LD   R30,Z
	AND  R30,R20
	MOV  R26,R30
	MOV  R30,R18
	CALL __LSLB12
	CALL SUBOPT_0x73
	MOV  R30,R18
	MOV  R26,R20
	CALL __LSLB12
	COM  R30
	AND  R30,R1
	OR   R21,R30
	CALL SUBOPT_0x6F
	ST   -Y,R31
	ST   -Y,R30
	MOV  R26,R21
	CALL _glcd_writemem
	RJMP _0x2020092
_0x2020094:
	RJMP _0x2020090
_0x2020091:
	CPI  R30,LOW(0x9)
	BRNE _0x2020095
	LDI  R21,LOW(0)
	RJMP _0x2020096
_0x2020095:
	CPI  R30,LOW(0xA)
	BRNE _0x202009C
	LDI  R21,LOW(255)
_0x2020096:
	CALL SUBOPT_0x71
	MOV  R26,R30
	MOV  R30,R18
	CALL __LSRB12
	MOV  R21,R30
_0x2020099:
	PUSH R17
	SUBI R17,-1
	LDD  R30,Y+14
	POP  R26
	CP   R26,R30
	BRSH _0x202009B
	CALL SUBOPT_0x72
	ST   -Y,R20
	LDI  R26,LOW(0)
	RCALL _pcd8544_wrmasked_G101
	RJMP _0x2020099
_0x202009B:
	RJMP _0x2020090
_0x202009C:
_0x202009D:
	PUSH R17
	SUBI R17,-1
	LDD  R30,Y+14
	POP  R26
	CP   R26,R30
	BRSH _0x202009F
	CALL SUBOPT_0x74
	MOV  R26,R30
	MOV  R30,R18
	CALL __LSRB12
	ST   -Y,R30
	ST   -Y,R20
	LDD  R26,Y+13
	RCALL _pcd8544_wrmasked_G101
	RJMP _0x202009D
_0x202009F:
_0x2020090:
_0x2020075:
	LDD  R30,Y+8
	LDD  R26,Y+10
	LDD  R27,Y+10+1
	LDI  R31,0
	ADD  R30,R26
	ADC  R31,R27
	STD  Y+10,R30
	STD  Y+10+1,R31
	RJMP _0x2020049
_0x202004B:
_0x2160008:
	CALL __LOADLOCR6
	ADIW R28,17
	RET
; .FEND

	.CSEG
_glcd_clipx:
; .FSTART _glcd_clipx
	CALL SUBOPT_0x75
	BRLT _0x2040003
	LDI  R30,LOW(0)
	LDI  R31,HIGH(0)
	JMP  _0x2160003
_0x2040003:
	LD   R26,Y
	LDD  R27,Y+1
	CPI  R26,LOW(0x54)
	LDI  R30,HIGH(0x54)
	CPC  R27,R30
	BRLT _0x2040004
	LDI  R30,LOW(83)
	LDI  R31,HIGH(83)
	JMP  _0x2160003
_0x2040004:
	LD   R30,Y
	LDD  R31,Y+1
	JMP  _0x2160003
; .FEND
_glcd_clipy:
; .FSTART _glcd_clipy
	CALL SUBOPT_0x75
	BRLT _0x2040005
	LDI  R30,LOW(0)
	LDI  R31,HIGH(0)
	JMP  _0x2160003
_0x2040005:
	LD   R26,Y
	LDD  R27,Y+1
	SBIW R26,48
	BRLT _0x2040006
	LDI  R30,LOW(47)
	LDI  R31,HIGH(47)
	JMP  _0x2160003
_0x2040006:
	LD   R30,Y
	LDD  R31,Y+1
	JMP  _0x2160003
; .FEND
_glcd_getcharw_G102:
; .FSTART _glcd_getcharw_G102
	ST   -Y,R27
	ST   -Y,R26
	SBIW R28,3
	CALL SUBOPT_0x76
	MOVW R16,R30
	MOV  R0,R16
	OR   R0,R17
	BRNE _0x204000B
	LDI  R30,LOW(0)
	LDI  R31,HIGH(0)
	RJMP _0x2160007
_0x204000B:
	CALL SUBOPT_0x77
	STD  Y+7,R0
	CALL SUBOPT_0x77
	STD  Y+6,R0
	CALL SUBOPT_0x77
	STD  Y+8,R0
	LDD  R30,Y+11
	LDD  R26,Y+8
	CP   R30,R26
	BRSH _0x204000C
	LDI  R30,LOW(0)
	LDI  R31,HIGH(0)
	RJMP _0x2160007
_0x204000C:
	MOVW R30,R16
	__ADDWRN 16,17,1
	LPM  R21,Z
	LDD  R26,Y+8
	CLR  R27
	CLR  R30
	ADD  R26,R21
	ADC  R27,R30
	LDD  R30,Y+11
	LDI  R31,0
	CP   R30,R26
	CPC  R31,R27
	BRLO _0x204000D
	LDI  R30,LOW(0)
	LDI  R31,HIGH(0)
	RJMP _0x2160007
_0x204000D:
	LDD  R30,Y+6
	LSR  R30
	LSR  R30
	LSR  R30
	MOV  R20,R30
	LDD  R30,Y+6
	ANDI R30,LOW(0x7)
	BREQ _0x204000E
	SUBI R20,-LOW(1)
_0x204000E:
	LDD  R30,Y+7
	CPI  R30,0
	BREQ _0x204000F
	LDD  R26,Y+9
	LDD  R27,Y+9+1
	ST   X,R30
	LDD  R26,Y+8
	LDD  R30,Y+11
	SUB  R30,R26
	LDI  R31,0
	MOVW R26,R30
	LDD  R30,Y+7
	LDI  R31,0
	CALL __MULW12U
	MOVW R26,R30
	MOV  R30,R20
	LDI  R31,0
	CALL __MULW12U
	ADD  R30,R16
	ADC  R31,R17
	RJMP _0x2160007
_0x204000F:
	MOVW R18,R16
	MOV  R30,R21
	LDI  R31,0
	__ADDWRR 16,17,30,31
_0x2040010:
	LDD  R26,Y+8
	SUBI R26,-LOW(1)
	STD  Y+8,R26
	SUBI R26,LOW(1)
	LDD  R30,Y+11
	CP   R26,R30
	BRSH _0x2040012
	MOVW R30,R18
	__ADDWRN 18,19,1
	LPM  R26,Z
	LDI  R27,0
	MOV  R30,R20
	LDI  R31,0
	CALL __MULW12U
	__ADDWRR 16,17,30,31
	RJMP _0x2040010
_0x2040012:
	MOVW R30,R18
	LPM  R30,Z
	LDD  R26,Y+9
	LDD  R27,Y+9+1
	ST   X,R30
	MOVW R30,R16
_0x2160007:
	CALL __LOADLOCR6
	ADIW R28,12
	RET
; .FEND
_glcd_new_line_G102:
; .FSTART _glcd_new_line_G102
	LDI  R30,LOW(0)
	__PUTB1MN _glcd_state,2
	__GETB2MN _glcd_state,3
	CLR  R27
	CALL SUBOPT_0x78
	LDI  R31,0
	ADD  R26,R30
	ADC  R27,R31
	__GETB1MN _glcd_state,7
	LDI  R31,0
	ADD  R26,R30
	ADC  R27,R31
	RCALL _glcd_clipy
	__PUTB1MN _glcd_state,3
	RET
; .FEND
_glcd_putchar:
; .FSTART _glcd_putchar
	ST   -Y,R26
	SBIW R28,1
	CALL SUBOPT_0x76
	SBIW R30,0
	BRNE PC+2
	RJMP _0x204001F
	LDD  R26,Y+7
	CPI  R26,LOW(0xA)
	BRNE _0x2040020
	RJMP _0x2040021
_0x2040020:
	LDD  R30,Y+7
	ST   -Y,R30
	MOVW R26,R28
	ADIW R26,7
	RCALL _glcd_getcharw_G102
	MOVW R20,R30
	SBIW R30,0
	BRNE _0x2040022
	CALL __LOADLOCR6
	RJMP _0x2160005
_0x2040022:
	__GETB1MN _glcd_state,6
	LDD  R26,Y+6
	ADD  R30,R26
	MOV  R19,R30
	__GETB2MN _glcd_state,2
	CLR  R27
	LDI  R31,0
	ADD  R30,R26
	ADC  R31,R27
	MOVW R16,R30
	__CPWRN 16,17,85
	BRLO _0x2040023
	MOV  R16,R19
	CLR  R17
	RCALL _glcd_new_line_G102
_0x2040023:
	__GETB1MN _glcd_state,2
	ST   -Y,R30
	__GETB1MN _glcd_state,3
	ST   -Y,R30
	LDD  R30,Y+8
	ST   -Y,R30
	CALL SUBOPT_0x78
	ST   -Y,R30
	LDI  R30,LOW(1)
	ST   -Y,R30
	ST   -Y,R21
	ST   -Y,R20
	LDI  R26,LOW(7)
	RCALL _glcd_block
	__GETB1MN _glcd_state,2
	LDD  R26,Y+6
	ADD  R30,R26
	ST   -Y,R30
	__GETB1MN _glcd_state,3
	ST   -Y,R30
	__GETB1MN _glcd_state,6
	ST   -Y,R30
	CALL SUBOPT_0x78
	CALL SUBOPT_0x79
	__GETB1MN _glcd_state,2
	ST   -Y,R30
	__GETB2MN _glcd_state,3
	CALL SUBOPT_0x78
	ADD  R30,R26
	ST   -Y,R30
	ST   -Y,R19
	__GETB1MN _glcd_state,7
	CALL SUBOPT_0x79
	LDI  R30,LOW(84)
	LDI  R31,HIGH(84)
	CP   R30,R16
	CPC  R31,R17
	BRNE _0x2040024
_0x2040021:
	RCALL _glcd_new_line_G102
	CALL __LOADLOCR6
	RJMP _0x2160005
_0x2040024:
_0x204001F:
	__PUTBMRN _glcd_state,2,16
	CALL __LOADLOCR6
	RJMP _0x2160005
; .FEND
_glcd_putcharxy:
; .FSTART _glcd_putcharxy
	ST   -Y,R26
	LDD  R30,Y+2
	ST   -Y,R30
	LDD  R26,Y+2
	RCALL _glcd_moveto
	LD   R26,Y
	RCALL _glcd_putchar
	JMP  _0x2160002
; .FEND
_glcd_outtextxy:
; .FSTART _glcd_outtextxy
	CALL SUBOPT_0x7A
_0x2040025:
	CALL SUBOPT_0x7B
	BREQ _0x2040027
	MOV  R26,R17
	RCALL _glcd_putchar
	RJMP _0x2040025
_0x2040027:
	LDD  R17,Y+0
	RJMP _0x2160004
; .FEND
_glcd_outtextxyf:
; .FSTART _glcd_outtextxyf
	CALL SUBOPT_0x7A
_0x2040028:
	CALL SUBOPT_0x7C
	BREQ _0x204002A
	MOV  R26,R17
	RCALL _glcd_putchar
	RJMP _0x2040028
_0x204002A:
	LDD  R17,Y+0
	RJMP _0x2160004
; .FEND
_glcd_outtext:
; .FSTART _glcd_outtext
	ST   -Y,R27
	ST   -Y,R26
	ST   -Y,R17
_0x204002E:
	CALL SUBOPT_0x7B
	BREQ _0x2040030
	MOV  R26,R17
	RCALL _glcd_putchar
	RJMP _0x204002E
_0x2040030:
	LDD  R17,Y+0
	JMP  _0x2160002
; .FEND
_glcd_outtextf:
; .FSTART _glcd_outtextf
	ST   -Y,R27
	ST   -Y,R26
	ST   -Y,R17
_0x2040031:
	CALL SUBOPT_0x7C
	BREQ _0x2040033
	MOV  R26,R17
	RCALL _glcd_putchar
	RJMP _0x2040031
_0x2040033:
	LDD  R17,Y+0
	JMP  _0x2160002
; .FEND
_glcd_putpixelm_G102:
; .FSTART _glcd_putpixelm_G102
	ST   -Y,R26
	LDD  R30,Y+2
	ST   -Y,R30
	LDD  R30,Y+2
	ST   -Y,R30
	__GETB1MN _glcd_state,9
	LDD  R26,Y+2
	AND  R30,R26
	BREQ _0x204003E
	LDS  R30,_glcd_state
	RJMP _0x204003F
_0x204003E:
	__GETB1MN _glcd_state,1
_0x204003F:
	MOV  R26,R30
	RCALL _glcd_putpixel
	LD   R30,Y
	LSL  R30
	ST   Y,R30
	CPI  R30,0
	BRNE _0x2040041
	LDI  R30,LOW(1)
	ST   Y,R30
_0x2040041:
	LD   R30,Y
	JMP  _0x2160002
; .FEND
_glcd_moveto:
; .FSTART _glcd_moveto
	ST   -Y,R26
	LDD  R26,Y+1
	CLR  R27
	RCALL _glcd_clipx
	__PUTB1MN _glcd_state,2
	LD   R26,Y
	CLR  R27
	RCALL _glcd_clipy
	__PUTB1MN _glcd_state,3
	JMP  _0x2160003
; .FEND
_glcd_line:
; .FSTART _glcd_line
	ST   -Y,R26
	SBIW R28,11
	CALL __SAVELOCR6
	LDD  R26,Y+20
	CLR  R27
	RCALL _glcd_clipx
	STD  Y+20,R30
	LDD  R26,Y+18
	CLR  R27
	RCALL _glcd_clipx
	STD  Y+18,R30
	LDD  R26,Y+19
	CLR  R27
	RCALL _glcd_clipy
	STD  Y+19,R30
	LDD  R26,Y+17
	CLR  R27
	RCALL _glcd_clipy
	STD  Y+17,R30
	LDD  R30,Y+18
	__PUTB1MN _glcd_state,2
	LDD  R30,Y+17
	__PUTB1MN _glcd_state,3
	LDI  R30,LOW(1)
	STD  Y+8,R30
	LDD  R30,Y+17
	LDD  R26,Y+19
	CP   R30,R26
	BRNE _0x2040042
	LDD  R17,Y+20
	LDD  R26,Y+18
	CP   R17,R26
	BRNE _0x2040043
	ST   -Y,R17
	LDD  R30,Y+20
	ST   -Y,R30
	LDI  R26,LOW(1)
	RCALL _glcd_putpixelm_G102
	RJMP _0x2160006
_0x2040043:
	LDD  R26,Y+18
	CP   R17,R26
	BRSH _0x2040044
	LDD  R30,Y+18
	SUB  R30,R17
	MOV  R16,R30
	__GETWRN 20,21,1
	RJMP _0x2040045
_0x2040044:
	LDD  R26,Y+18
	MOV  R30,R17
	SUB  R30,R26
	MOV  R16,R30
	__GETWRN 20,21,-1
_0x2040045:
_0x2040047:
	LDD  R19,Y+19
	LDI  R30,LOW(0)
	STD  Y+6,R30
_0x2040049:
	CALL SUBOPT_0x7D
	BRSH _0x204004B
	ST   -Y,R17
	ST   -Y,R19
	INC  R19
	LDD  R26,Y+10
	RCALL _glcd_putpixelm_G102
	STD  Y+7,R30
	RJMP _0x2040049
_0x204004B:
	LDD  R30,Y+7
	STD  Y+8,R30
	ADD  R17,R20
	MOV  R30,R16
	SUBI R16,1
	CPI  R30,0
	BRNE _0x2040047
	RJMP _0x204004C
_0x2040042:
	LDD  R30,Y+18
	LDD  R26,Y+20
	CP   R30,R26
	BRNE _0x204004D
	LDD  R19,Y+19
	LDD  R26,Y+17
	CP   R19,R26
	BRSH _0x204004E
	LDD  R30,Y+17
	SUB  R30,R19
	MOV  R18,R30
	LDI  R30,LOW(1)
	LDI  R31,HIGH(1)
	RJMP _0x204011B
_0x204004E:
	LDD  R26,Y+17
	MOV  R30,R19
	SUB  R30,R26
	MOV  R18,R30
	LDI  R30,LOW(65535)
	LDI  R31,HIGH(65535)
_0x204011B:
	STD  Y+13,R30
	STD  Y+13+1,R31
_0x2040051:
	LDD  R17,Y+20
	LDI  R30,LOW(0)
	STD  Y+6,R30
_0x2040053:
	CALL SUBOPT_0x7D
	BRSH _0x2040055
	ST   -Y,R17
	INC  R17
	CALL SUBOPT_0x7E
	STD  Y+7,R30
	RJMP _0x2040053
_0x2040055:
	LDD  R30,Y+7
	STD  Y+8,R30
	LDD  R30,Y+13
	ADD  R19,R30
	MOV  R30,R18
	SUBI R18,1
	CPI  R30,0
	BRNE _0x2040051
	RJMP _0x2040056
_0x204004D:
	LDI  R30,LOW(0)
	STD  Y+6,R30
_0x2040057:
	CALL SUBOPT_0x7D
	BRLO PC+2
	RJMP _0x2040059
	LDD  R17,Y+20
	LDD  R19,Y+19
	LDI  R30,LOW(1)
	MOV  R18,R30
	MOV  R16,R30
	LDD  R26,Y+18
	CLR  R27
	LDD  R30,Y+20
	LDI  R31,0
	SUB  R26,R30
	SBC  R27,R31
	MOVW R20,R26
	TST  R21
	BRPL _0x204005A
	LDI  R16,LOW(255)
	MOVW R30,R20
	CALL __ANEGW1
	MOVW R20,R30
_0x204005A:
	MOVW R30,R20
	LSL  R30
	ROL  R31
	STD  Y+15,R30
	STD  Y+15+1,R31
	LDD  R26,Y+17
	CLR  R27
	LDD  R30,Y+19
	LDI  R31,0
	SUB  R26,R30
	SBC  R27,R31
	STD  Y+13,R26
	STD  Y+13+1,R27
	LDD  R26,Y+14
	TST  R26
	BRPL _0x204005B
	LDI  R18,LOW(255)
	LDD  R30,Y+13
	LDD  R31,Y+13+1
	CALL __ANEGW1
	STD  Y+13,R30
	STD  Y+13+1,R31
_0x204005B:
	LDD  R30,Y+13
	LDD  R31,Y+13+1
	LSL  R30
	ROL  R31
	STD  Y+11,R30
	STD  Y+11+1,R31
	ST   -Y,R17
	ST   -Y,R19
	LDI  R26,LOW(1)
	RCALL _glcd_putpixelm_G102
	STD  Y+8,R30
	LDI  R30,LOW(0)
	STD  Y+9,R30
	STD  Y+9+1,R30
	LDD  R26,Y+13
	LDD  R27,Y+13+1
	CP   R20,R26
	CPC  R21,R27
	BRLT _0x204005C
_0x204005E:
	ADD  R17,R16
	LDD  R30,Y+11
	LDD  R31,Y+11+1
	CALL SUBOPT_0x7F
	LDD  R26,Y+9
	LDD  R27,Y+9+1
	CP   R20,R26
	CPC  R21,R27
	BRGE _0x2040060
	ADD  R19,R18
	LDD  R26,Y+15
	LDD  R27,Y+15+1
	CALL SUBOPT_0x80
_0x2040060:
	ST   -Y,R17
	CALL SUBOPT_0x7E
	STD  Y+8,R30
	LDD  R30,Y+18
	CP   R30,R17
	BRNE _0x204005E
	RJMP _0x2040061
_0x204005C:
_0x2040063:
	ADD  R19,R18
	LDD  R30,Y+15
	LDD  R31,Y+15+1
	CALL SUBOPT_0x7F
	LDD  R30,Y+13
	LDD  R31,Y+13+1
	LDD  R26,Y+9
	LDD  R27,Y+9+1
	CP   R30,R26
	CPC  R31,R27
	BRGE _0x2040065
	ADD  R17,R16
	LDD  R26,Y+11
	LDD  R27,Y+11+1
	CALL SUBOPT_0x80
_0x2040065:
	ST   -Y,R17
	CALL SUBOPT_0x7E
	STD  Y+8,R30
	LDD  R30,Y+17
	CP   R30,R19
	BRNE _0x2040063
_0x2040061:
	LDD  R30,Y+19
	SUBI R30,-LOW(1)
	STD  Y+19,R30
	LDD  R30,Y+17
	SUBI R30,-LOW(1)
	STD  Y+17,R30
	RJMP _0x2040057
_0x2040059:
_0x2040056:
_0x204004C:
_0x2160006:
	CALL __LOADLOCR6
	ADIW R28,21
	RET
; .FEND
_glcd_corners_G102:
; .FSTART _glcd_corners_G102
	ST   -Y,R27
	ST   -Y,R26
	CALL __SAVELOCR6
	LDD  R30,Y+6
	LDD  R31,Y+6+1
	LDD  R17,Z+3
	LDD  R16,Z+1
	LDD  R19,Z+2
	LDD  R26,Y+6
	LDD  R27,Y+6+1
	LD   R18,X
	CP   R16,R17
	BRSH _0x2040066
	MOV  R21,R16
	MOV  R16,R17
	MOV  R17,R21
_0x2040066:
	CP   R18,R19
	BRSH _0x2040067
	MOV  R21,R18
	MOV  R18,R19
	MOV  R19,R21
_0x2040067:
	MOV  R30,R17
	__PUTB1SNS 6,3
	MOV  R30,R19
	__PUTB1SNS 6,2
	MOV  R30,R16
	__PUTB1SNS 6,1
	LDD  R26,Y+6
	LDD  R27,Y+6+1
	ST   X,R18
	CALL __LOADLOCR6
	RJMP _0x2160005
; .FEND
_glcd_rectangle:
; .FSTART _glcd_rectangle
	ST   -Y,R26
	CALL __SAVELOCR4
	__GETB1MN _glcd_state,8
	SUBI R30,LOW(1)
	MOV  R19,R30
	MOVW R26,R28
	ADIW R26,4
	RCALL _glcd_corners_G102
	LDD  R30,Y+5
	SUB  R30,R19
	MOV  R17,R30
	LDD  R30,Y+4
	SUB  R30,R19
	MOV  R16,R30
	LDD  R30,Y+7
	ST   -Y,R30
	LDD  R30,Y+7
	ST   -Y,R30
	ST   -Y,R17
	LDD  R26,Y+9
	RCALL _glcd_line
	ST   -Y,R17
	LDD  R30,Y+7
	ST   -Y,R30
	ST   -Y,R17
	MOV  R26,R16
	RCALL _glcd_line
	LDD  R30,Y+5
	ST   -Y,R30
	ST   -Y,R16
	MOV  R30,R19
	LDD  R26,Y+9
	ADD  R30,R26
	ST   -Y,R30
	MOV  R26,R16
	RCALL _glcd_line
	LDD  R30,Y+7
	ST   -Y,R30
	LDD  R30,Y+5
	ST   -Y,R30
	LDD  R30,Y+9
	ST   -Y,R30
	MOV  R30,R19
	LDD  R26,Y+9
	ADD  R26,R30
	RCALL _glcd_line
	CALL __LOADLOCR4
_0x2160005:
	ADIW R28,8
	RET
; .FEND

	.CSEG

	.CSEG
_memset:
; .FSTART _memset
	ST   -Y,R27
	ST   -Y,R26
    ldd  r27,y+1
    ld   r26,y
    adiw r26,0
    breq memset1
    ldd  r31,y+4
    ldd  r30,y+3
    ldd  r22,y+2
memset0:
    st   z+,r22
    sbiw r26,1
    brne memset0
memset1:
    ldd  r30,y+3
    ldd  r31,y+4
_0x2160004:
	ADIW R28,5
	RET
; .FEND
_strcat:
; .FSTART _strcat
	ST   -Y,R27
	ST   -Y,R26
    ld   r30,y+
    ld   r31,y+
    ld   r26,y+
    ld   r27,y+
    movw r24,r26
strcat0:
    ld   r22,x+
    tst  r22
    brne strcat0
    sbiw r26,1
strcat1:
    ld   r22,z+
    st   x+,r22
    tst  r22
    brne strcat1
    movw r30,r24
    ret
; .FEND
_strcpy:
; .FSTART _strcpy
	ST   -Y,R27
	ST   -Y,R26
    ld   r30,y+
    ld   r31,y+
    ld   r26,y+
    ld   r27,y+
    movw r24,r26
strcpy0:
    ld   r22,z+
    st   x+,r22
    tst  r22
    brne strcpy0
    movw r30,r24
    ret
; .FEND
_strstr:
; .FSTART _strstr
	ST   -Y,R27
	ST   -Y,R26
    ldd  r26,y+2
    ldd  r27,y+3
    movw r24,r26
strstr0:
    ld   r30,y
    ldd  r31,y+1
strstr1:
    ld   r23,z+
    tst  r23
    brne strstr2
    movw r30,r24
    rjmp strstr3
strstr2:
    ld   r22,x+
    cp   r22,r23
    breq strstr1
    adiw r24,1
    movw r26,r24
    tst  r22
    brne strstr0
    clr  r30
    clr  r31
strstr3:
	JMP  _0x2160001
; .FEND

	.CSEG
_atoi:
; .FSTART _atoi
	ST   -Y,R27
	ST   -Y,R26
   	ldd  r27,y+1
   	ld   r26,y
__atoi0:
   	ld   r30,x
        mov  r24,r26
	MOV  R26,R30
	CALL _isspace
        mov  r26,r24
   	tst  r30
   	breq __atoi1
   	adiw r26,1
   	rjmp __atoi0
__atoi1:
   	clt
   	ld   r30,x
   	cpi  r30,'-'
   	brne __atoi2
   	set
   	rjmp __atoi3
__atoi2:
   	cpi  r30,'+'
   	brne __atoi4
__atoi3:
   	adiw r26,1
__atoi4:
   	clr  r22
   	clr  r23
__atoi5:
   	ld   r30,x
        mov  r24,r26
	MOV  R26,R30
	CALL _isdigit
        mov  r26,r24
   	tst  r30
   	breq __atoi6
   	movw r30,r22
   	lsl  r22
   	rol  r23
   	lsl  r22
   	rol  r23
   	add  r22,r30
   	adc  r23,r31
   	lsl  r22
   	rol  r23
   	ld   r30,x+
   	clr  r31
   	subi r30,'0'
   	add  r22,r30
   	adc  r23,r31
   	rjmp __atoi5
__atoi6:
   	movw r30,r22
   	brtc __atoi7
   	com  r30
   	com  r31
   	adiw r30,1
__atoi7:
   	adiw r28,2
   	ret
; .FEND

	.DSEG

	.CSEG

	.CSEG
_bcd2bin:
; .FSTART _bcd2bin
	ST   -Y,R26
    ld   r30,y
    swap r30
    andi r30,0xf
    mov  r26,r30
    lsl  r26
    lsl  r26
    add  r30,r26
    lsl  r30
    ld   r26,y+
    andi r26,0xf
    add  r30,r26
    ret
; .FEND
_bin2bcd:
; .FSTART _bin2bcd
	ST   -Y,R26
    ld   r26,y+
    clr  r30
bin2bcd0:
    subi r26,10
    brmi bin2bcd1
    subi r30,-16
    rjmp bin2bcd0
bin2bcd1:
    subi r26,-10
    add  r30,r26
    ret
; .FEND

	.CSEG
_glcd_getmask:
; .FSTART _glcd_getmask
	ST   -Y,R26
	LD   R30,Y
	LDI  R31,0
	SUBI R30,LOW(-__glcd_mask*2)
	SBCI R31,HIGH(-__glcd_mask*2)
	LPM  R26,Z
	LDD  R30,Y+1
	CALL __LSLB12
_0x2160003:
	ADIW R28,2
	RET
; .FEND
_glcd_mappixcolor1bit:
; .FSTART _glcd_mappixcolor1bit
	ST   -Y,R26
	ST   -Y,R17
	LDD  R30,Y+1
	CPI  R30,LOW(0x7)
	BREQ _0x2100007
	CPI  R30,LOW(0xA)
	BRNE _0x2100008
_0x2100007:
	LDS  R17,_glcd_state
	RJMP _0x2100009
_0x2100008:
	CPI  R30,LOW(0x9)
	BRNE _0x210000B
	__GETBRMN 17,_glcd_state,1
	RJMP _0x2100009
_0x210000B:
	CPI  R30,LOW(0x8)
	BRNE _0x2100005
	__GETBRMN 17,_glcd_state,16
_0x2100009:
	__GETB1MN _glcd_state,1
	CPI  R30,0
	BREQ _0x210000E
	CPI  R17,0
	BREQ _0x210000F
	LDI  R30,LOW(255)
	LDD  R17,Y+0
	RJMP _0x2160002
_0x210000F:
	LDD  R30,Y+2
	COM  R30
	LDD  R17,Y+0
	RJMP _0x2160002
_0x210000E:
	CPI  R17,0
	BRNE _0x2100011
	LDI  R30,LOW(0)
	LDD  R17,Y+0
	RJMP _0x2160002
_0x2100011:
_0x2100005:
	LDD  R30,Y+2
	LDD  R17,Y+0
	RJMP _0x2160002
; .FEND
_glcd_readmem:
; .FSTART _glcd_readmem
	ST   -Y,R27
	ST   -Y,R26
	LDD  R30,Y+2
	CPI  R30,LOW(0x1)
	BRNE _0x2100015
	LD   R30,Y
	LDD  R31,Y+1
	LPM  R30,Z
	RJMP _0x2160002
_0x2100015:
	CPI  R30,LOW(0x2)
	BRNE _0x2100016
	LD   R26,Y
	LDD  R27,Y+1
	CALL __EEPROMRDB
	RJMP _0x2160002
_0x2100016:
	CPI  R30,LOW(0x3)
	BRNE _0x2100018
	LD   R26,Y
	LDD  R27,Y+1
	__CALL1MN _glcd_state,25
	RJMP _0x2160002
_0x2100018:
	LD   R26,Y
	LDD  R27,Y+1
	LD   R30,X
_0x2160002:
	ADIW R28,3
	RET
; .FEND
_glcd_writemem:
; .FSTART _glcd_writemem
	ST   -Y,R26
	LDD  R30,Y+3
	CPI  R30,0
	BRNE _0x210001C
	LD   R30,Y
	LDD  R26,Y+1
	LDD  R27,Y+1+1
	ST   X,R30
	RJMP _0x210001B
_0x210001C:
	CPI  R30,LOW(0x2)
	BRNE _0x210001D
	LD   R30,Y
	LDD  R26,Y+1
	LDD  R27,Y+1+1
	CALL __EEPROMWRB
	RJMP _0x210001B
_0x210001D:
	CPI  R30,LOW(0x3)
	BRNE _0x210001B
	LDD  R30,Y+1
	LDD  R31,Y+1+1
	ST   -Y,R31
	ST   -Y,R30
	LDD  R26,Y+2
	__CALL1MN _glcd_state,27
_0x210001B:
_0x2160001:
	ADIW R28,4
	RET
; .FEND

	.CSEG

	.CSEG
_isdigit:
; .FSTART _isdigit
	ST   -Y,R26
    ldi  r30,1
    ld   r31,y+
    cpi  r31,'0'
    brlo isdigit0
    cpi  r31,'9'+1
    brlo isdigit1
isdigit0:
    clr  r30
isdigit1:
    ret
; .FEND
_isspace:
; .FSTART _isspace
	ST   -Y,R26
    ldi  r30,1
    ld   r31,y+
    cpi  r31,' '
    breq isspace1
    cpi  r31,9
    brlo isspace0
    cpi  r31,13+1
    brlo isspace1
isspace0:
    clr  r30
isspace1:
    ret
; .FEND

	.DSEG
_glcd_state:
	.BYTE 0x1D
_name_week_day:
	.BYTE 0x10
_name_day:
	.BYTE 0x40
_name_month:
	.BYTE 0x1A
_name_year:
	.BYTE 0x20
_name_second:
	.BYTE 0x78
_name_minute:
	.BYTE 0x78
_name_hour:
	.BYTE 0x30
_name_relay:
	.BYTE 0xE
_milisec:
	.BYTE 0x4
_dem:
	.BYTE 0x4
_year:
	.BYTE 0x1
_hour:
	.BYTE 0x1
_minute:
	.BYTE 0x1
_second:
	.BYTE 0x1
_Address1:
	.BYTE 0x1
_Address2:
	.BYTE 0x1
_Address3:
	.BYTE 0x1
_Address4:
	.BYTE 0x1
_station_receive:
	.BYTE 0xC

	.ESEG
_node:
	.BYTE 0xF0

	.DSEG
_phone_number:
	.BYTE 0xD
_sim:
	.BYTE 0x1
_money_code:
	.BYTE 0x14
_money:
	.BYTE 0xA
_is_get_money:
	.BYTE 0x1
_ahi:
	.BYTE 0x5B
_p4:
	.BYTE 0x2
_p3:
	.BYTE 0x2
_p2:
	.BYTE 0x2
_p1:
	.BYTE 0x2
_buffer_index:
	.BYTE 0x2
_receive_buffer:
	.BYTE 0x1F4
_rx_buffer1:
	.BYTE 0x40
_rx_wr_index1:
	.BYTE 0x1
_rx_rd_index1:
	.BYTE 0x1
_rx_counter1:
	.BYTE 0x1
_tx_buffer1:
	.BYTE 0x40
_tx_wr_index1:
	.BYTE 0x1
_tx_rd_index1:
	.BYTE 0x1
_tx_counter1:
	.BYTE 0x1
_gfx_addr_G101:
	.BYTE 0x2
_gfx_buffer_G101:
	.BYTE 0x1F8
__seed_G106:
	.BYTE 0x4

	.CSEG
;OPTIMIZER ADDED SUBROUTINE, CALLED 2 TIMES, CODE SIZE REDUCTION:2 WORDS
SUBOPT_0x0:
	SBI  0x18,3
	__DELAY_USB 13
	LDI  R30,0
	SBIC 0x16,2
	LDI  R30,1
	RET

;OPTIMIZER ADDED SUBROUTINE, CALLED 2 TIMES, CODE SIZE REDUCTION:2 WORDS
SUBOPT_0x1:
	LD   R26,Y
	CALL _SPI_Write
	SBI  0x18,5
	__DELAY_USB 27
	RET

;OPTIMIZER ADDED SUBROUTINE, CALLED 2 TIMES, CODE SIZE REDUCTION:9 WORDS
SUBOPT_0x2:
	ORI  R30,0x20
	MOV  R26,R30
	CALL _SPI_Write
	LD   R26,Y
	CALL _SPI_Write
	LD   R26,Y
	CALL _SPI_Write
	LD   R26,Y
	CALL _SPI_Write
	LD   R26,Y
	RET

;OPTIMIZER ADDED SUBROUTINE, CALLED 4 TIMES, CODE SIZE REDUCTION:3 WORDS
SUBOPT_0x3:
	SBI  0x18,5
	__DELAY_USB 27
	RET

;OPTIMIZER ADDED SUBROUTINE, CALLED 2 TIMES, CODE SIZE REDUCTION:4 WORDS
SUBOPT_0x4:
	ST   -Y,R26
	CBI  0x18,5
	LDI  R30,LOW(3)
	ST   -Y,R30
	LDI  R26,LOW(3)
	CALL _RF_Write
	RJMP SUBOPT_0x3

;OPTIMIZER ADDED SUBROUTINE, CALLED 3 TIMES, CODE SIZE REDUCTION:9 WORDS
SUBOPT_0x5:
	LDI  R30,LOW(7)
	ST   -Y,R30
	LDI  R26,LOW(126)
	CALL _RF_Write
	LDI  R26,LOW(226)
	JMP  _RF_Command

;OPTIMIZER ADDED SUBROUTINE, CALLED 4 TIMES, CODE SIZE REDUCTION:6 WORDS
SUBOPT_0x6:
	LDI  R31,0
	ST   X+,R30
	ST   X,R31
	JMP  _SPI_Read

;OPTIMIZER ADDED SUBROUTINE, CALLED 26 TIMES, CODE SIZE REDUCTION:97 WORDS
SUBOPT_0x7:
	LDI  R30,LOW(_font5x7*2)
	LDI  R31,HIGH(_font5x7*2)
	__PUTW1MN _glcd_state,4
	RET

;OPTIMIZER ADDED SUBROUTINE, CALLED 8 TIMES, CODE SIZE REDUCTION:11 WORDS
SUBOPT_0x8:
	ST   -Y,R17
	ST   -Y,R16
	__GETWRN 16,17,0
	RET

;OPTIMIZER ADDED SUBROUTINE, CALLED 3 TIMES, CODE SIZE REDUCTION:5 WORDS
SUBOPT_0x9:
	LDI  R30,LOW(0)
	ST   -Y,R30
	ST   -Y,R30
	LDI  R30,LOW(84)
	ST   -Y,R30
	RET

;OPTIMIZER ADDED SUBROUTINE, CALLED 2 TIMES, CODE SIZE REDUCTION:5 WORDS
SUBOPT_0xA:
	CALL _get_relay_status
	LDI  R30,LOW(_relay_icon_7x7*2)
	LDI  R31,HIGH(_relay_icon_7x7*2)
	__PUTW1MN _glcd_state,4
	__GETWRN 16,17,1
	RET

;OPTIMIZER ADDED SUBROUTINE, CALLED 2 TIMES, CODE SIZE REDUCTION:16 WORDS
SUBOPT_0xB:
	MOV  R30,R16
	LSL  R30
	LSL  R30
	LSL  R30
	SUBI R30,-LOW(27)
	ST   -Y,R30
	LDI  R30,LOW(39)
	ST   -Y,R30
	__MULBNWRU 16,17,40
	SUBI R30,LOW(-_node)
	SBCI R31,HIGH(-_node)
	MOVW R26,R30
	CALL __EEPROMRDB
	MOV  R26,R30
	JMP  _glcd_putcharxy

;OPTIMIZER ADDED SUBROUTINE, CALLED 35 TIMES, CODE SIZE REDUCTION:65 WORDS
SUBOPT_0xC:
	__PUTW1MN _glcd_state,4
	RET

;OPTIMIZER ADDED SUBROUTINE, CALLED 2 TIMES, CODE SIZE REDUCTION:7 WORDS
SUBOPT_0xD:
	LDI  R30,LOW(_hour)
	LDI  R31,HIGH(_hour)
	ST   -Y,R31
	ST   -Y,R30
	LDI  R30,LOW(_minute)
	LDI  R31,HIGH(_minute)
	ST   -Y,R31
	ST   -Y,R30
	LDI  R26,LOW(_second)
	LDI  R27,HIGH(_second)
	JMP  _rtc_get_time

;OPTIMIZER ADDED SUBROUTINE, CALLED 23 TIMES, CODE SIZE REDUCTION:41 WORDS
SUBOPT_0xE:
	LDI  R30,LOW(_big_letter_10x14*2)
	LDI  R31,HIGH(_big_letter_10x14*2)
	RJMP SUBOPT_0xC

;OPTIMIZER ADDED SUBROUTINE, CALLED 5 TIMES, CODE SIZE REDUCTION:29 WORDS
SUBOPT_0xF:
	LDI  R31,0
	LSL  R30
	ROL  R31
	ADD  R26,R30
	ADC  R27,R31
	CALL __GETW1P
	MOVW R26,R30
	JMP  _glcd_outtextxyf

;OPTIMIZER ADDED SUBROUTINE, CALLED 2 TIMES, CODE SIZE REDUCTION:5 WORDS
SUBOPT_0x10:
	LDI  R31,0
	LSL  R30
	ROL  R31
	ADD  R26,R30
	ADC  R27,R31
	CALL __GETW1P
	MOVW R26,R30
	JMP  _glcd_outtextf

;OPTIMIZER ADDED SUBROUTINE, CALLED 4 TIMES, CODE SIZE REDUCTION:9 WORDS
SUBOPT_0x11:
	MOVW R30,R28
	ADIW R30,2
	ST   -Y,R31
	ST   -Y,R30
	LDI  R30,LOW(0)
	ST   -Y,R30
	RET

;OPTIMIZER ADDED SUBROUTINE, CALLED 3 TIMES, CODE SIZE REDUCTION:5 WORDS
SUBOPT_0x12:
	MOVW R30,R16
	MOVW R26,R28
	ADIW R26,2
	ADD  R30,R26
	ADC  R31,R27
	MOVW R0,R30
	RET

;OPTIMIZER ADDED SUBROUTINE, CALLED 5 TIMES, CODE SIZE REDUCTION:5 WORDS
SUBOPT_0x13:
	ST   -Y,R27
	ST   -Y,R26
	LD   R30,Y
	LDD  R31,Y+1
	RET

;OPTIMIZER ADDED SUBROUTINE, CALLED 2 TIMES, CODE SIZE REDUCTION:2 WORDS
SUBOPT_0x14:
	MOV  R30,R8
	SUBI R30,LOW(7)
	ST   -Y,R30
	ST   -Y,R10
	LDI  R26,LOW(62)
	JMP  _glcd_putcharxy

;OPTIMIZER ADDED SUBROUTINE, CALLED 7 TIMES, CODE SIZE REDUCTION:9 WORDS
SUBOPT_0x15:
	CALL __SAVELOCR4
	__GETWRN 16,17,0
	RET

;OPTIMIZER ADDED SUBROUTINE, CALLED 5 TIMES, CODE SIZE REDUCTION:13 WORDS
SUBOPT_0x16:
	CALL _gui_set_title
	MOVW R30,R10
	ADIW R30,0
	ST   -Y,R31
	ST   -Y,R30
	RET

;OPTIMIZER ADDED SUBROUTINE, CALLED 5 TIMES, CODE SIZE REDUCTION:13 WORDS
SUBOPT_0x17:
	CALL _gui_set_choice
	MOVW R30,R10
	ADIW R30,8
	ST   -Y,R31
	ST   -Y,R30
	RET

;OPTIMIZER ADDED SUBROUTINE, CALLED 4 TIMES, CODE SIZE REDUCTION:9 WORDS
SUBOPT_0x18:
	CALL _gui_set_choice
	MOVW R30,R10
	ADIW R30,16
	ST   -Y,R31
	ST   -Y,R30
	RET

;OPTIMIZER ADDED SUBROUTINE, CALLED 3 TIMES, CODE SIZE REDUCTION:5 WORDS
SUBOPT_0x19:
	CALL _gui_set_choice
	MOVW R30,R10
	ADIW R30,24
	ST   -Y,R31
	ST   -Y,R30
	RET

;OPTIMIZER ADDED SUBROUTINE, CALLED 3 TIMES, CODE SIZE REDUCTION:9 WORDS
SUBOPT_0x1A:
	__ADDWRN 18,19,1
	MOVW R30,R10
	ADIW R30,8
	MOVW R10,R30
	__CPWRN 18,19,5
	RET

;OPTIMIZER ADDED SUBROUTINE, CALLED 3 TIMES, CODE SIZE REDUCTION:7 WORDS
SUBOPT_0x1B:
	__GETWRN 16,17,4
	__GETWRN 18,19,1
	LDI  R30,LOW(15)
	LDI  R31,HIGH(15)
	MOVW R10,R30
	RET

;OPTIMIZER ADDED SUBROUTINE, CALLED 5 TIMES, CODE SIZE REDUCTION:9 WORDS
SUBOPT_0x1C:
	MOVW R26,R16
	CALL _gui_cursor_move
	__GETWRN 16,17,0
	RET

;OPTIMIZER ADDED SUBROUTINE, CALLED 4 TIMES, CODE SIZE REDUCTION:3 WORDS
SUBOPT_0x1D:
	CALL _gui_init
	LDI  R30,LOW(1)
	MOV  R4,R30
	RET

;OPTIMIZER ADDED SUBROUTINE, CALLED 3 TIMES, CODE SIZE REDUCTION:5 WORDS
SUBOPT_0x1E:
	MOVW R30,R28
	ADIW R30,4
	ST   -Y,R31
	ST   -Y,R30
	LDI  R30,LOW(0)
	ST   -Y,R30
	RET

;OPTIMIZER ADDED SUBROUTINE, CALLED 2 TIMES, CODE SIZE REDUCTION:1 WORDS
SUBOPT_0x1F:
	MOVW R30,R16
	MOVW R26,R28
	ADIW R26,4
	ADD  R30,R26
	ADC  R31,R27
	MOVW R0,R30
	RET

;OPTIMIZER ADDED SUBROUTINE, CALLED 5 TIMES, CODE SIZE REDUCTION:5 WORDS
SUBOPT_0x20:
	LDI  R30,LOW(0)
	ST   -Y,R30
	LDI  R30,LOW(10)
	ST   -Y,R30
	RET

;OPTIMIZER ADDED SUBROUTINE, CALLED 11 TIMES, CODE SIZE REDUCTION:47 WORDS
SUBOPT_0x21:
	MOV  R30,R8
	SUBI R30,LOW(7)
	ST   -Y,R30
	ST   -Y,R10
	LDI  R26,LOW(32)
	JMP  _glcd_putcharxy

;OPTIMIZER ADDED SUBROUTINE, CALLED 2 TIMES, CODE SIZE REDUCTION:3 WORDS
SUBOPT_0x22:
	CBI  0x12,4
	__POINTW2MN _node,40
	LDI  R30,LOW(0)
	CALL __EEPROMWRB
	__POINTW2MN _node,78
	RET

;OPTIMIZER ADDED SUBROUTINE, CALLED 2 TIMES, CODE SIZE REDUCTION:3 WORDS
SUBOPT_0x23:
	CBI  0x12,7
	__POINTW2MN _node,80
	LDI  R30,LOW(0)
	CALL __EEPROMWRB
	__POINTW2MN _node,118
	RET

;OPTIMIZER ADDED SUBROUTINE, CALLED 2 TIMES, CODE SIZE REDUCTION:3 WORDS
SUBOPT_0x24:
	CBI  0x15,7
	__POINTW2MN _node,120
	LDI  R30,LOW(0)
	CALL __EEPROMWRB
	__POINTW2MN _node,158
	RET

;OPTIMIZER ADDED SUBROUTINE, CALLED 2 TIMES, CODE SIZE REDUCTION:3 WORDS
SUBOPT_0x25:
	CBI  0x1B,7
	__POINTW2MN _node,160
	LDI  R30,LOW(0)
	CALL __EEPROMWRB
	__POINTW2MN _node,198
	RET

;OPTIMIZER ADDED SUBROUTINE, CALLED 2 TIMES, CODE SIZE REDUCTION:3 WORDS
SUBOPT_0x26:
	CBI  0x1B,2
	__POINTW2MN _node,200
	LDI  R30,LOW(0)
	CALL __EEPROMWRB
	__POINTW2MN _node,238
	RET

;OPTIMIZER ADDED SUBROUTINE, CALLED 2 TIMES, CODE SIZE REDUCTION:8 WORDS
SUBOPT_0x27:
	ST   -Y,R0
	ST   -Y,R1
	ST   -Y,R15
	ST   -Y,R22
	ST   -Y,R23
	ST   -Y,R24
	ST   -Y,R25
	ST   -Y,R26
	ST   -Y,R27
	ST   -Y,R30
	ST   -Y,R31
	IN   R30,SREG
	ST   -Y,R30
	RET

;OPTIMIZER ADDED SUBROUTINE, CALLED 6 TIMES, CODE SIZE REDUCTION:12 WORDS
SUBOPT_0x28:
	LD   R30,X+
	LD   R31,X+
	ADIW R30,1
	ST   -X,R31
	ST   -X,R30
	RET

;OPTIMIZER ADDED SUBROUTINE, CALLED 2 TIMES, CODE SIZE REDUCTION:8 WORDS
SUBOPT_0x29:
	LD   R30,Y+
	OUT  SREG,R30
	LD   R31,Y+
	LD   R30,Y+
	LD   R27,Y+
	LD   R26,Y+
	LD   R25,Y+
	LD   R24,Y+
	LD   R23,Y+
	LD   R22,Y+
	LD   R15,Y+
	LD   R1,Y+
	LD   R0,Y+
	RET

;OPTIMIZER ADDED SUBROUTINE, CALLED 4 TIMES, CODE SIZE REDUCTION:15 WORDS
SUBOPT_0x2A:
	LDS  R26,_milisec
	LDS  R27,_milisec+1
	LDS  R24,_milisec+2
	LDS  R25,_milisec+3
	RET

;OPTIMIZER ADDED SUBROUTINE, CALLED 2 TIMES, CODE SIZE REDUCTION:3 WORDS
SUBOPT_0x2B:
	LD   R30,X
	MOVW R26,R0
	ST   X,R30
	LDD  R30,Y+6
	LDD  R31,Y+6+1
	ADIW R30,1
	STD  Y+6,R30
	STD  Y+6+1,R31
	RET

;OPTIMIZER ADDED SUBROUTINE, CALLED 7 TIMES, CODE SIZE REDUCTION:9 WORDS
SUBOPT_0x2C:
	ST   -Y,R31
	ST   -Y,R30
	LDI  R30,LOW(0)
	ST   -Y,R30
	RET

;OPTIMIZER ADDED SUBROUTINE, CALLED 14 TIMES, CODE SIZE REDUCTION:101 WORDS
SUBOPT_0x2D:
	ST   -Y,R31
	ST   -Y,R30
	LDI  R30,LOW(50)
	LDI  R31,HIGH(50)
	ST   -Y,R31
	ST   -Y,R30
	LDI  R26,LOW(5)
	LDI  R27,HIGH(5)
	JMP  _put_command

;OPTIMIZER ADDED SUBROUTINE, CALLED 3 TIMES, CODE SIZE REDUCTION:1 WORDS
SUBOPT_0x2E:
	MOVW R30,R28
	ADIW R30,21
	RJMP SUBOPT_0x2C

;OPTIMIZER ADDED SUBROUTINE, CALLED 7 TIMES, CODE SIZE REDUCTION:9 WORDS
SUBOPT_0x2F:
	LDI  R26,LOW(10)
	LDI  R27,0
	JMP  _memset

;OPTIMIZER ADDED SUBROUTINE, CALLED 9 TIMES, CODE SIZE REDUCTION:13 WORDS
SUBOPT_0x30:
	LDI  R26,LOW(_receive_buffer)
	LDI  R27,HIGH(_receive_buffer)
	ADD  R26,R16
	ADC  R27,R17
	RET

;OPTIMIZER ADDED SUBROUTINE, CALLED 5 TIMES, CODE SIZE REDUCTION:5 WORDS
SUBOPT_0x31:
	LDI  R26,LOW(2000)
	LDI  R27,HIGH(2000)
	JMP  _delay_ms

;OPTIMIZER ADDED SUBROUTINE, CALLED 3 TIMES, CODE SIZE REDUCTION:1 WORDS
SUBOPT_0x32:
	CALL _clear_buffer
	JMP  _glcd_clear

;OPTIMIZER ADDED SUBROUTINE, CALLED 3 TIMES, CODE SIZE REDUCTION:1 WORDS
SUBOPT_0x33:
	CALL _glcd_outtextxy
	RJMP SUBOPT_0x31

;OPTIMIZER ADDED SUBROUTINE, CALLED 2 TIMES, CODE SIZE REDUCTION:2 WORDS
SUBOPT_0x34:
	__GETW2SX 172
	LD   R30,X
	RET

;OPTIMIZER ADDED SUBROUTINE, CALLED 3 TIMES, CODE SIZE REDUCTION:1 WORDS
SUBOPT_0x35:
	MOVW R30,R28
	ADIW R30,2
	ST   -Y,R31
	ST   -Y,R30
	RET

;OPTIMIZER ADDED SUBROUTINE, CALLED 15 TIMES, CODE SIZE REDUCTION:25 WORDS
SUBOPT_0x36:
	MOVW R30,R28
	ADIW R30,12
	ST   -Y,R31
	ST   -Y,R30
	RET

;OPTIMIZER ADDED SUBROUTINE, CALLED 3 TIMES, CODE SIZE REDUCTION:1 WORDS
SUBOPT_0x37:
	LDD  R30,Y+8
	LDD  R31,Y+8+1
	MOVW R26,R28
	ADIW R26,14
	RET

;OPTIMIZER ADDED SUBROUTINE, CALLED 3 TIMES, CODE SIZE REDUCTION:3 WORDS
SUBOPT_0x38:
	LDD  R30,Y+8
	LDD  R31,Y+8+1
	ADIW R30,1
	STD  Y+8,R30
	STD  Y+8+1,R31
	RET

;OPTIMIZER ADDED SUBROUTINE, CALLED 2 TIMES, CODE SIZE REDUCTION:1 WORDS
SUBOPT_0x39:
	CALL _glcd_clear
	LDI  R30,LOW(15)
	ST   -Y,R30
	LDI  R30,LOW(0)
	ST   -Y,R30
	RET

;OPTIMIZER ADDED SUBROUTINE, CALLED 2 TIMES, CODE SIZE REDUCTION:1 WORDS
SUBOPT_0x3A:
	ST   -Y,R31
	ST   -Y,R30
	LDI  R26,LOW(4000)
	LDI  R27,HIGH(4000)
	JMP  _wait_until

;OPTIMIZER ADDED SUBROUTINE, CALLED 2 TIMES, CODE SIZE REDUCTION:1 WORDS
SUBOPT_0x3B:
	CALL _put_string
	LDI  R26,LOW(100)
	LDI  R27,0
	JMP  _delay_ms

;OPTIMIZER ADDED SUBROUTINE, CALLED 2 TIMES, CODE SIZE REDUCTION:3 WORDS
SUBOPT_0x3C:
	ST   -Y,R31
	ST   -Y,R30
	LDI  R26,LOW(1000)
	LDI  R27,HIGH(1000)
	CALL _wait_until
	__GETWRN 16,17,0
	RET

;OPTIMIZER ADDED SUBROUTINE, CALLED 2 TIMES, CODE SIZE REDUCTION:4 WORDS
SUBOPT_0x3D:
	LD   R26,X
	CALL _glcd_putchar
	MOVW R26,R16
	LDI  R30,LOW(20)
	LDI  R31,HIGH(20)
	CALL __MODW21
	SBIW R30,0
	RET

;OPTIMIZER ADDED SUBROUTINE, CALLED 2 TIMES, CODE SIZE REDUCTION:1 WORDS
SUBOPT_0x3E:
	LDI  R26,LOW(800)
	LDI  R27,HIGH(800)
	CALL _delay_ms
	JMP  _glcd_clear

;OPTIMIZER ADDED SUBROUTINE, CALLED 4 TIMES, CODE SIZE REDUCTION:3 WORDS
SUBOPT_0x3F:
	LDI  R26,LOW(100)
	LDI  R27,0
	JMP  _delay_ms

;OPTIMIZER ADDED SUBROUTINE, CALLED 5 TIMES, CODE SIZE REDUCTION:5 WORDS
SUBOPT_0x40:
	__GETWRN 16,17,1
	JMP  _clrscr

;OPTIMIZER ADDED SUBROUTINE, CALLED 3 TIMES, CODE SIZE REDUCTION:5 WORDS
SUBOPT_0x41:
	CALL _gui_set_title
	LDI  R30,LOW(_relay_icon_10x14*2)
	LDI  R31,HIGH(_relay_icon_10x14*2)
	RJMP SUBOPT_0xC

;OPTIMIZER ADDED SUBROUTINE, CALLED 8 TIMES, CODE SIZE REDUCTION:11 WORDS
SUBOPT_0x42:
	LDI  R30,LOW(5)
	ST   -Y,R30
	LDI  R30,LOW(22)
	ST   -Y,R30
	RET

;OPTIMIZER ADDED SUBROUTINE, CALLED 2 TIMES, CODE SIZE REDUCTION:2 WORDS
SUBOPT_0x43:
	CALL __EEPROMRDB
	MOV  R26,R30
	CALL _glcd_putcharxy
	RJMP SUBOPT_0xE

;OPTIMIZER ADDED SUBROUTINE, CALLED 2 TIMES, CODE SIZE REDUCTION:11 WORDS
SUBOPT_0x44:
	LDI  R30,LOW(25)
	ST   -Y,R30
	LDI  R30,LOW(22)
	ST   -Y,R30
	MOVW R30,R16
	LDI  R26,LOW(_name_relay)
	LDI  R27,HIGH(_name_relay)
	LSL  R30
	ROL  R31
	ADD  R26,R30
	ADC  R27,R31
	CALL __GETW1P
	MOVW R26,R30
	JMP  _glcd_outtextxyf

;OPTIMIZER ADDED SUBROUTINE, CALLED 2 TIMES, CODE SIZE REDUCTION:2 WORDS
SUBOPT_0x45:
	__MULBNWRU 16,17,40
	SUBI R30,LOW(-_node)
	SBCI R31,HIGH(-_node)
	RET

;OPTIMIZER ADDED SUBROUTINE, CALLED 2 TIMES, CODE SIZE REDUCTION:4 WORDS
SUBOPT_0x46:
	MOVW R22,R30
	MOVW R26,R30
	CALL __EEPROMRDB
	CALL __LNEGB1
	MOVW R26,R22
	CALL __EEPROMWRB
	RET

;OPTIMIZER ADDED SUBROUTINE, CALLED 5 TIMES, CODE SIZE REDUCTION:5 WORDS
SUBOPT_0x47:
	LDI  R30,LOW(_relay_icon_10x14*2)
	LDI  R31,HIGH(_relay_icon_10x14*2)
	RJMP SUBOPT_0xC

;OPTIMIZER ADDED SUBROUTINE, CALLED 19 TIMES, CODE SIZE REDUCTION:33 WORDS
SUBOPT_0x48:
	CALL _glcd_outtext
	RJMP SUBOPT_0x7

;OPTIMIZER ADDED SUBROUTINE, CALLED 2 TIMES, CODE SIZE REDUCTION:1 WORDS
SUBOPT_0x49:
	LDI  R26,0
	SBIC 0x12,4
	LDI  R26,1
	LDI  R30,LOW(0)
	CALL __EQB12
	RET

;OPTIMIZER ADDED SUBROUTINE, CALLED 2 TIMES, CODE SIZE REDUCTION:1 WORDS
SUBOPT_0x4A:
	LDI  R26,0
	SBIC 0x12,7
	LDI  R26,1
	LDI  R30,LOW(0)
	CALL __EQB12
	RET

;OPTIMIZER ADDED SUBROUTINE, CALLED 2 TIMES, CODE SIZE REDUCTION:1 WORDS
SUBOPT_0x4B:
	LDI  R26,0
	SBIC 0x15,7
	LDI  R26,1
	LDI  R30,LOW(0)
	CALL __EQB12
	RET

;OPTIMIZER ADDED SUBROUTINE, CALLED 2 TIMES, CODE SIZE REDUCTION:1 WORDS
SUBOPT_0x4C:
	LDI  R26,0
	SBIC 0x1B,7
	LDI  R26,1
	LDI  R30,LOW(0)
	CALL __EQB12
	RET

;OPTIMIZER ADDED SUBROUTINE, CALLED 2 TIMES, CODE SIZE REDUCTION:1 WORDS
SUBOPT_0x4D:
	LDI  R26,0
	SBIC 0x1B,2
	LDI  R26,1
	LDI  R30,LOW(0)
	CALL __EQB12
	RET

;OPTIMIZER ADDED SUBROUTINE, CALLED 5 TIMES, CODE SIZE REDUCTION:5 WORDS
SUBOPT_0x4E:
	__GETWRN 16,17,0
	JMP  _clrscr

;OPTIMIZER ADDED SUBROUTINE, CALLED 3 TIMES, CODE SIZE REDUCTION:7 WORDS
SUBOPT_0x4F:
	LDD  R26,Y+4
	LDD  R27,Y+4+1
	LDI  R30,LOW(40)
	CALL __MULB1W2U
	__ADDW1MN _node,1
	RET

;OPTIMIZER ADDED SUBROUTINE, CALLED 6 TIMES, CODE SIZE REDUCTION:22 WORDS
SUBOPT_0x50:
	MOVW R26,R30
	CALL __EEPROMRDB
	SUBI R30,-LOW(48)
	MOV  R26,R30
	JMP  _glcd_putcharxy

;OPTIMIZER ADDED SUBROUTINE, CALLED 4 TIMES, CODE SIZE REDUCTION:39 WORDS
SUBOPT_0x51:
	LDI  R30,LOW(25)
	ST   -Y,R30
	LDI  R30,LOW(22)
	ST   -Y,R30
	MOVW R30,R16
	LDI  R26,LOW(_name_hour)
	LDI  R27,HIGH(_name_hour)
	LSL  R30
	ROL  R31
	ADD  R26,R30
	ADC  R27,R31
	CALL __GETW1P
	MOVW R26,R30
	JMP  _glcd_outtextxyf

;OPTIMIZER ADDED SUBROUTINE, CALLED 2 TIMES, CODE SIZE REDUCTION:10 WORDS
SUBOPT_0x52:
	ADD  R30,R16
	ADC  R31,R17
	__PUTW1R 23,24
	MOVW R26,R30
	CALL __EEPROMRDB
	CALL __LNEGB1
	__GETW2R 23,24
	CALL __EEPROMWRB
	RJMP SUBOPT_0x47

;OPTIMIZER ADDED SUBROUTINE, CALLED 4 TIMES, CODE SIZE REDUCTION:3 WORDS
SUBOPT_0x53:
	ADD  R30,R16
	ADC  R31,R17
	RJMP SUBOPT_0x50

;OPTIMIZER ADDED SUBROUTINE, CALLED 3 TIMES, CODE SIZE REDUCTION:3 WORDS
SUBOPT_0x54:
	LDD  R26,Y+4
	LDD  R27,Y+4+1
	LDI  R30,LOW(40)
	CALL __MULB1W2U
	RET

;OPTIMIZER ADDED SUBROUTINE, CALLED 4 TIMES, CODE SIZE REDUCTION:39 WORDS
SUBOPT_0x55:
	LDI  R30,LOW(25)
	ST   -Y,R30
	LDI  R30,LOW(22)
	ST   -Y,R30
	MOVW R30,R16
	LDI  R26,LOW(_name_week_day)
	LDI  R27,HIGH(_name_week_day)
	LSL  R30
	ROL  R31
	ADD  R26,R30
	ADC  R27,R31
	CALL __GETW1P
	MOVW R26,R30
	JMP  _glcd_outtextxyf

;OPTIMIZER ADDED SUBROUTINE, CALLED 5 TIMES, CODE SIZE REDUCTION:5 WORDS
SUBOPT_0x56:
	SUBI R30,-LOW(48)
	MOVW R26,R0
	CALL __EEPROMWRB
	RET

;OPTIMIZER ADDED SUBROUTINE, CALLED 7 TIMES, CODE SIZE REDUCTION:9 WORDS
SUBOPT_0x57:
	CALL _gui_set_title
	RJMP SUBOPT_0xE

;OPTIMIZER ADDED SUBROUTINE, CALLED 2 TIMES, CODE SIZE REDUCTION:11 WORDS
SUBOPT_0x58:
	LDI  R30,LOW(25)
	ST   -Y,R30
	LDI  R30,LOW(22)
	ST   -Y,R30
	MOVW R30,R16
	LDI  R26,LOW(_name_day)
	LDI  R27,HIGH(_name_day)
	LSL  R30
	ROL  R31
	ADD  R26,R30
	ADC  R27,R31
	CALL __GETW1P
	MOVW R26,R30
	JMP  _glcd_outtextxyf

;OPTIMIZER ADDED SUBROUTINE, CALLED 2 TIMES, CODE SIZE REDUCTION:11 WORDS
SUBOPT_0x59:
	LDI  R30,LOW(25)
	ST   -Y,R30
	LDI  R30,LOW(22)
	ST   -Y,R30
	MOVW R30,R16
	LDI  R26,LOW(_name_month)
	LDI  R27,HIGH(_name_month)
	LSL  R30
	ROL  R31
	ADD  R26,R30
	ADC  R27,R31
	CALL __GETW1P
	MOVW R26,R30
	JMP  _glcd_outtextxyf

;OPTIMIZER ADDED SUBROUTINE, CALLED 2 TIMES, CODE SIZE REDUCTION:11 WORDS
SUBOPT_0x5A:
	LDI  R30,LOW(15)
	ST   -Y,R30
	LDI  R30,LOW(22)
	ST   -Y,R30
	MOVW R30,R16
	LDI  R26,LOW(_name_year)
	LDI  R27,HIGH(_name_year)
	LSL  R30
	ROL  R31
	ADD  R26,R30
	ADC  R27,R31
	CALL __GETW1P
	MOVW R26,R30
	JMP  _glcd_outtextxyf

;OPTIMIZER ADDED SUBROUTINE, CALLED 2 TIMES, CODE SIZE REDUCTION:11 WORDS
SUBOPT_0x5B:
	LDI  R30,LOW(25)
	ST   -Y,R30
	LDI  R30,LOW(22)
	ST   -Y,R30
	MOVW R30,R16
	LDI  R26,LOW(_name_minute)
	LDI  R27,HIGH(_name_minute)
	LSL  R30
	ROL  R31
	ADD  R26,R30
	ADC  R27,R31
	CALL __GETW1P
	MOVW R26,R30
	JMP  _glcd_outtextxyf

;OPTIMIZER ADDED SUBROUTINE, CALLED 2 TIMES, CODE SIZE REDUCTION:11 WORDS
SUBOPT_0x5C:
	LDI  R30,LOW(25)
	ST   -Y,R30
	LDI  R30,LOW(22)
	ST   -Y,R30
	MOVW R30,R16
	LDI  R26,LOW(_name_second)
	LDI  R27,HIGH(_name_second)
	LSL  R30
	ROL  R31
	ADD  R26,R30
	ADC  R27,R31
	CALL __GETW1P
	MOVW R26,R30
	JMP  _glcd_outtextxyf

;OPTIMIZER ADDED SUBROUTINE, CALLED 3 TIMES, CODE SIZE REDUCTION:1 WORDS
SUBOPT_0x5D:
	__GETWRN 18,19,1
	JMP  _clrscr

;OPTIMIZER ADDED SUBROUTINE, CALLED 4 TIMES, CODE SIZE REDUCTION:12 WORDS
SUBOPT_0x5E:
	ST   -Y,R6
	ST   -Y,R13
	ST   -Y,R12
	LDS  R26,_year
	JMP  _rtc_set_date

;OPTIMIZER ADDED SUBROUTINE, CALLED 3 TIMES, CODE SIZE REDUCTION:13 WORDS
SUBOPT_0x5F:
	LDS  R30,_hour
	ST   -Y,R30
	LDS  R30,_minute
	ST   -Y,R30
	LDS  R26,_second
	JMP  _rtc_set_time

;OPTIMIZER ADDED SUBROUTINE, CALLED 2 TIMES, CODE SIZE REDUCTION:5 WORDS
SUBOPT_0x60:
	__MULBNWRU 18,19,40
	__ADDW1MN _node,38
	MOVW R26,R30
	CALL __EEPROMRDW
	RET

;OPTIMIZER ADDED SUBROUTINE, CALLED 2 TIMES, CODE SIZE REDUCTION:4 WORDS
SUBOPT_0x61:
	LDI  R30,LOW(0)
	STS  _milisec,R30
	STS  _milisec+1,R30
	STS  _milisec+2,R30
	STS  _milisec+3,R30
	RET

;OPTIMIZER ADDED SUBROUTINE, CALLED 5 TIMES, CODE SIZE REDUCTION:9 WORDS
SUBOPT_0x62:
	CALL _i2c_start
	LDI  R26,LOW(208)
	JMP  _i2c_write

;OPTIMIZER ADDED SUBROUTINE, CALLED 5 TIMES, CODE SIZE REDUCTION:5 WORDS
SUBOPT_0x63:
	CALL _i2c_write
	JMP  _i2c_stop

;OPTIMIZER ADDED SUBROUTINE, CALLED 2 TIMES, CODE SIZE REDUCTION:3 WORDS
SUBOPT_0x64:
	CALL _i2c_start
	LDI  R26,LOW(209)
	CALL _i2c_write
	LDI  R26,LOW(1)
	JMP  _i2c_read

;OPTIMIZER ADDED SUBROUTINE, CALLED 2 TIMES, CODE SIZE REDUCTION:1 WORDS
SUBOPT_0x65:
	MOV  R26,R30
	CALL _bcd2bin
	LD   R26,Y
	LDD  R27,Y+1
	ST   X,R30
	RET

;OPTIMIZER ADDED SUBROUTINE, CALLED 3 TIMES, CODE SIZE REDUCTION:5 WORDS
SUBOPT_0x66:
	LDI  R26,LOW(1)
	CALL _i2c_read
	MOV  R26,R30
	JMP  _bcd2bin

;OPTIMIZER ADDED SUBROUTINE, CALLED 2 TIMES, CODE SIZE REDUCTION:1 WORDS
SUBOPT_0x67:
	LDD  R26,Y+2
	LDD  R27,Y+2+1
	ST   X,R30
	LDI  R26,LOW(0)
	JMP  _i2c_read

;OPTIMIZER ADDED SUBROUTINE, CALLED 2 TIMES, CODE SIZE REDUCTION:1 WORDS
SUBOPT_0x68:
	CALL _i2c_write
	LD   R26,Y
	CALL _bin2bcd
	MOV  R26,R30
	RET

;OPTIMIZER ADDED SUBROUTINE, CALLED 2 TIMES, CODE SIZE REDUCTION:1 WORDS
SUBOPT_0x69:
	CALL _i2c_write
	LDD  R26,Y+1
	CALL _bin2bcd
	MOV  R26,R30
	RET

;OPTIMIZER ADDED SUBROUTINE, CALLED 2 TIMES, CODE SIZE REDUCTION:1 WORDS
SUBOPT_0x6A:
	CALL _i2c_write
	LDD  R26,Y+2
	CALL _bin2bcd
	MOV  R26,R30
	RET

;OPTIMIZER ADDED SUBROUTINE, CALLED 4 TIMES, CODE SIZE REDUCTION:3 WORDS
SUBOPT_0x6B:
	LDI  R26,LOW(_gfx_addr_G101)
	LDI  R27,HIGH(_gfx_addr_G101)
	RJMP SUBOPT_0x28

;OPTIMIZER ADDED SUBROUTINE, CALLED 3 TIMES, CODE SIZE REDUCTION:1 WORDS
SUBOPT_0x6C:
	ADD  R30,R26
	ADC  R31,R27
	STD  Y+6,R30
	STD  Y+6+1,R31
	RET

;OPTIMIZER ADDED SUBROUTINE, CALLED 2 TIMES, CODE SIZE REDUCTION:8 WORDS
SUBOPT_0x6D:
	LDD  R30,Y+12
	ST   -Y,R30
	LDD  R30,Y+7
	LDD  R31,Y+7+1
	ADIW R30,1
	STD  Y+7,R30
	STD  Y+7+1,R31
	SBIW R30,1
	ST   -Y,R31
	ST   -Y,R30
	LDI  R26,LOW(0)
	JMP  _glcd_writemem

;OPTIMIZER ADDED SUBROUTINE, CALLED 3 TIMES, CODE SIZE REDUCTION:1 WORDS
SUBOPT_0x6E:
	ST   -Y,R16
	LDD  R26,Y+16
	JMP  _pcd8544_setaddr_G101

;OPTIMIZER ADDED SUBROUTINE, CALLED 4 TIMES, CODE SIZE REDUCTION:15 WORDS
SUBOPT_0x6F:
	LDD  R30,Y+12
	ST   -Y,R30
	LDD  R30,Y+7
	LDD  R31,Y+7+1
	ADIW R30,1
	STD  Y+7,R30
	STD  Y+7+1,R31
	SBIW R30,1
	RET

;OPTIMIZER ADDED SUBROUTINE, CALLED 3 TIMES, CODE SIZE REDUCTION:5 WORDS
SUBOPT_0x70:
	CLR  R22
	CLR  R23
	MOVW R26,R30
	MOVW R24,R22
	JMP  _glcd_readmem

;OPTIMIZER ADDED SUBROUTINE, CALLED 3 TIMES, CODE SIZE REDUCTION:1 WORDS
SUBOPT_0x71:
	ST   -Y,R21
	LDD  R26,Y+10
	JMP  _glcd_mappixcolor1bit

;OPTIMIZER ADDED SUBROUTINE, CALLED 3 TIMES, CODE SIZE REDUCTION:3 WORDS
SUBOPT_0x72:
	ST   -Y,R16
	INC  R16
	LDD  R30,Y+16
	ST   -Y,R30
	ST   -Y,R21
	RET

;OPTIMIZER ADDED SUBROUTINE, CALLED 2 TIMES, CODE SIZE REDUCTION:5 WORDS
SUBOPT_0x73:
	MOV  R21,R30
	LDD  R30,Y+12
	ST   -Y,R30
	LDD  R26,Y+7
	LDD  R27,Y+7+1
	CLR  R24
	CLR  R25
	CALL _glcd_readmem
	MOV  R1,R30
	RET

;OPTIMIZER ADDED SUBROUTINE, CALLED 2 TIMES, CODE SIZE REDUCTION:9 WORDS
SUBOPT_0x74:
	ST   -Y,R16
	INC  R16
	LDD  R30,Y+16
	ST   -Y,R30
	LDD  R30,Y+14
	ST   -Y,R30
	LDD  R30,Y+9
	LDD  R31,Y+9+1
	ADIW R30,1
	STD  Y+9,R30
	STD  Y+9+1,R31
	SBIW R30,1
	RJMP SUBOPT_0x70

;OPTIMIZER ADDED SUBROUTINE, CALLED 2 TIMES, CODE SIZE REDUCTION:1 WORDS
SUBOPT_0x75:
	ST   -Y,R27
	ST   -Y,R26
	LD   R26,Y
	LDD  R27,Y+1
	CALL __CPW02
	RET

;OPTIMIZER ADDED SUBROUTINE, CALLED 2 TIMES, CODE SIZE REDUCTION:1 WORDS
SUBOPT_0x76:
	CALL __SAVELOCR6
	__GETW1MN _glcd_state,4
	RET

;OPTIMIZER ADDED SUBROUTINE, CALLED 3 TIMES, CODE SIZE REDUCTION:1 WORDS
SUBOPT_0x77:
	MOVW R30,R16
	__ADDWRN 16,17,1
	LPM  R0,Z
	RET

;OPTIMIZER ADDED SUBROUTINE, CALLED 4 TIMES, CODE SIZE REDUCTION:9 WORDS
SUBOPT_0x78:
	__GETW1MN _glcd_state,4
	ADIW R30,1
	LPM  R30,Z
	RET

;OPTIMIZER ADDED SUBROUTINE, CALLED 2 TIMES, CODE SIZE REDUCTION:5 WORDS
SUBOPT_0x79:
	ST   -Y,R30
	LDI  R30,LOW(0)
	ST   -Y,R30
	LDI  R30,LOW(0)
	LDI  R31,HIGH(0)
	ST   -Y,R31
	ST   -Y,R30
	LDI  R26,LOW(9)
	JMP  _glcd_block

;OPTIMIZER ADDED SUBROUTINE, CALLED 2 TIMES, CODE SIZE REDUCTION:3 WORDS
SUBOPT_0x7A:
	ST   -Y,R27
	ST   -Y,R26
	ST   -Y,R17
	LDD  R30,Y+4
	ST   -Y,R30
	LDD  R26,Y+4
	JMP  _glcd_moveto

;OPTIMIZER ADDED SUBROUTINE, CALLED 2 TIMES, CODE SIZE REDUCTION:2 WORDS
SUBOPT_0x7B:
	LDD  R26,Y+1
	LDD  R27,Y+1+1
	LD   R30,X+
	STD  Y+1,R26
	STD  Y+1+1,R27
	MOV  R17,R30
	CPI  R30,0
	RET

;OPTIMIZER ADDED SUBROUTINE, CALLED 2 TIMES, CODE SIZE REDUCTION:4 WORDS
SUBOPT_0x7C:
	LDD  R30,Y+1
	LDD  R31,Y+1+1
	ADIW R30,1
	STD  Y+1,R30
	STD  Y+1+1,R31
	SBIW R30,1
	LPM  R30,Z
	MOV  R17,R30
	CPI  R30,0
	RET

;OPTIMIZER ADDED SUBROUTINE, CALLED 3 TIMES, CODE SIZE REDUCTION:7 WORDS
SUBOPT_0x7D:
	LDD  R26,Y+6
	SUBI R26,-LOW(1)
	STD  Y+6,R26
	SUBI R26,LOW(1)
	__GETB1MN _glcd_state,8
	CP   R26,R30
	RET

;OPTIMIZER ADDED SUBROUTINE, CALLED 3 TIMES, CODE SIZE REDUCTION:1 WORDS
SUBOPT_0x7E:
	ST   -Y,R19
	LDD  R26,Y+10
	JMP  _glcd_putpixelm_G102

;OPTIMIZER ADDED SUBROUTINE, CALLED 2 TIMES, CODE SIZE REDUCTION:1 WORDS
SUBOPT_0x7F:
	LDD  R26,Y+9
	LDD  R27,Y+9+1
	ADD  R30,R26
	ADC  R31,R27
	STD  Y+9,R30
	STD  Y+9+1,R31
	RET

;OPTIMIZER ADDED SUBROUTINE, CALLED 2 TIMES, CODE SIZE REDUCTION:1 WORDS
SUBOPT_0x80:
	LDD  R30,Y+9
	LDD  R31,Y+9+1
	SUB  R30,R26
	SBC  R31,R27
	STD  Y+9,R30
	STD  Y+9+1,R31
	RET


	.CSEG
	.equ __sda_bit=1
	.equ __scl_bit=0
	.equ __i2c_port=0x12 ;PORTD
	.equ __i2c_dir=__i2c_port-1
	.equ __i2c_pin=__i2c_port-2

_i2c_init:
	cbi  __i2c_port,__scl_bit
	cbi  __i2c_port,__sda_bit
	sbi  __i2c_dir,__scl_bit
	cbi  __i2c_dir,__sda_bit
	rjmp __i2c_delay2
_i2c_start:
	cbi  __i2c_dir,__sda_bit
	cbi  __i2c_dir,__scl_bit
	clr  r30
	nop
	sbis __i2c_pin,__sda_bit
	ret
	sbis __i2c_pin,__scl_bit
	ret
	rcall __i2c_delay1
	sbi  __i2c_dir,__sda_bit
	rcall __i2c_delay1
	sbi  __i2c_dir,__scl_bit
	ldi  r30,1
__i2c_delay1:
	ldi  r22,13
	rjmp __i2c_delay2l
_i2c_stop:
	sbi  __i2c_dir,__sda_bit
	sbi  __i2c_dir,__scl_bit
	rcall __i2c_delay2
	cbi  __i2c_dir,__scl_bit
	rcall __i2c_delay1
	cbi  __i2c_dir,__sda_bit
__i2c_delay2:
	ldi  r22,27
__i2c_delay2l:
	dec  r22
	brne __i2c_delay2l
	ret
_i2c_read:
	ldi  r23,8
__i2c_read0:
	cbi  __i2c_dir,__scl_bit
	rcall __i2c_delay1
__i2c_read3:
	sbis __i2c_pin,__scl_bit
	rjmp __i2c_read3
	rcall __i2c_delay1
	clc
	sbic __i2c_pin,__sda_bit
	sec
	sbi  __i2c_dir,__scl_bit
	rcall __i2c_delay2
	rol  r30
	dec  r23
	brne __i2c_read0
	mov  r23,r26
	tst  r23
	brne __i2c_read1
	cbi  __i2c_dir,__sda_bit
	rjmp __i2c_read2
__i2c_read1:
	sbi  __i2c_dir,__sda_bit
__i2c_read2:
	rcall __i2c_delay1
	cbi  __i2c_dir,__scl_bit
	rcall __i2c_delay2
	sbi  __i2c_dir,__scl_bit
	rcall __i2c_delay1
	cbi  __i2c_dir,__sda_bit
	rjmp __i2c_delay1

_i2c_write:
	ldi  r23,8
__i2c_write0:
	lsl  r26
	brcc __i2c_write1
	cbi  __i2c_dir,__sda_bit
	rjmp __i2c_write2
__i2c_write1:
	sbi  __i2c_dir,__sda_bit
__i2c_write2:
	rcall __i2c_delay2
	cbi  __i2c_dir,__scl_bit
	rcall __i2c_delay1
__i2c_write3:
	sbis __i2c_pin,__scl_bit
	rjmp __i2c_write3
	rcall __i2c_delay1
	sbi  __i2c_dir,__scl_bit
	dec  r23
	brne __i2c_write0
	cbi  __i2c_dir,__sda_bit
	rcall __i2c_delay1
	cbi  __i2c_dir,__scl_bit
	rcall __i2c_delay2
	ldi  r30,1
	sbic __i2c_pin,__sda_bit
	clr  r30
	sbi  __i2c_dir,__scl_bit
	rjmp __i2c_delay1

_delay_ms:
	adiw r26,0
	breq __delay_ms1
__delay_ms0:
	__DELAY_USW 0x7D0
	wdr
	sbiw r26,1
	brne __delay_ms0
__delay_ms1:
	ret

__SUBD21:
	SUB  R26,R30
	SBC  R27,R31
	SBC  R24,R22
	SBC  R25,R23
	RET

__ANEGW1:
	NEG  R31
	NEG  R30
	SBCI R31,0
	RET

__LSLB12:
	TST  R30
	MOV  R0,R30
	MOV  R30,R26
	BREQ __LSLB12R
__LSLB12L:
	LSL  R30
	DEC  R0
	BRNE __LSLB12L
__LSLB12R:
	RET

__LSRB12:
	TST  R30
	MOV  R0,R30
	MOV  R30,R26
	BREQ __LSRB12R
__LSRB12L:
	LSR  R30
	DEC  R0
	BRNE __LSRB12L
__LSRB12R:
	RET

__CWD1:
	MOV  R22,R31
	ADD  R22,R22
	SBC  R22,R22
	MOV  R23,R22
	RET

__EQB12:
	CP   R30,R26
	LDI  R30,1
	BREQ __EQB12T
	CLR  R30
__EQB12T:
	RET

__LNEGB1:
	TST  R30
	LDI  R30,1
	BREQ __LNEGB1F
	CLR  R30
__LNEGB1F:
	RET

__MULW12U:
	MUL  R31,R26
	MOV  R31,R0
	MUL  R30,R27
	ADD  R31,R0
	MUL  R30,R26
	MOV  R30,R0
	ADD  R31,R1
	RET

__MULB1W2U:
	MOV  R22,R30
	MUL  R22,R26
	MOVW R30,R0
	MUL  R22,R27
	ADD  R31,R0
	RET

__MULW12:
	RCALL __CHKSIGNW
	RCALL __MULW12U
	BRTC __MULW121
	RCALL __ANEGW1
__MULW121:
	RET

__DIVW21U:
	CLR  R0
	CLR  R1
	LDI  R25,16
__DIVW21U1:
	LSL  R26
	ROL  R27
	ROL  R0
	ROL  R1
	SUB  R0,R30
	SBC  R1,R31
	BRCC __DIVW21U2
	ADD  R0,R30
	ADC  R1,R31
	RJMP __DIVW21U3
__DIVW21U2:
	SBR  R26,1
__DIVW21U3:
	DEC  R25
	BRNE __DIVW21U1
	MOVW R30,R26
	MOVW R26,R0
	RET

__DIVW21:
	RCALL __CHKSIGNW
	RCALL __DIVW21U
	BRTC __DIVW211
	RCALL __ANEGW1
__DIVW211:
	RET

__DIVD21U:
	PUSH R19
	PUSH R20
	PUSH R21
	CLR  R0
	CLR  R1
	CLR  R20
	CLR  R21
	LDI  R19,32
__DIVD21U1:
	LSL  R26
	ROL  R27
	ROL  R24
	ROL  R25
	ROL  R0
	ROL  R1
	ROL  R20
	ROL  R21
	SUB  R0,R30
	SBC  R1,R31
	SBC  R20,R22
	SBC  R21,R23
	BRCC __DIVD21U2
	ADD  R0,R30
	ADC  R1,R31
	ADC  R20,R22
	ADC  R21,R23
	RJMP __DIVD21U3
__DIVD21U2:
	SBR  R26,1
__DIVD21U3:
	DEC  R19
	BRNE __DIVD21U1
	MOVW R30,R26
	MOVW R22,R24
	MOVW R26,R0
	MOVW R24,R20
	POP  R21
	POP  R20
	POP  R19
	RET

__MODW21:
	CLT
	SBRS R27,7
	RJMP __MODW211
	COM  R26
	COM  R27
	ADIW R26,1
	SET
__MODW211:
	SBRC R31,7
	RCALL __ANEGW1
	RCALL __DIVW21U
	MOVW R30,R26
	BRTC __MODW212
	RCALL __ANEGW1
__MODW212:
	RET

__MODD21U:
	RCALL __DIVD21U
	MOVW R30,R26
	MOVW R22,R24
	RET

__CHKSIGNW:
	CLT
	SBRS R31,7
	RJMP __CHKSW1
	RCALL __ANEGW1
	SET
__CHKSW1:
	SBRS R27,7
	RJMP __CHKSW2
	COM  R26
	COM  R27
	ADIW R26,1
	BLD  R0,0
	INC  R0
	BST  R0,0
__CHKSW2:
	RET

__GETW1P:
	LD   R30,X+
	LD   R31,X
	SBIW R26,1
	RET

__GETD1P_INC:
	LD   R30,X+
	LD   R31,X+
	LD   R22,X+
	LD   R23,X+
	RET

__PUTDP1_DEC:
	ST   -X,R23
	ST   -X,R22
	ST   -X,R31
	ST   -X,R30
	RET

__PUTPARL:
	CLR  R27
__PUTPAR:
	ADD  R30,R26
	ADC  R31,R27
__PUTPAR0:
	LD   R0,-Z
	ST   -Y,R0
	SBIW R26,1
	BRNE __PUTPAR0
	RET

__EEPROMRDW:
	ADIW R26,1
	RCALL __EEPROMRDB
	MOV  R31,R30
	SBIW R26,1

__EEPROMRDB:
	SBIC EECR,EEWE
	RJMP __EEPROMRDB
	PUSH R31
	IN   R31,SREG
	CLI
	OUT  EEARL,R26
	OUT  EEARH,R27
	SBI  EECR,EERE
	IN   R30,EEDR
	OUT  SREG,R31
	POP  R31
	RET

__EEPROMWRW:
	RCALL __EEPROMWRB
	ADIW R26,1
	PUSH R30
	MOV  R30,R31
	RCALL __EEPROMWRB
	POP  R30
	SBIW R26,1
	RET

__EEPROMWRB:
	SBIS EECR,EEWE
	RJMP __EEPROMWRB1
	WDR
	RJMP __EEPROMWRB
__EEPROMWRB1:
	IN   R25,SREG
	CLI
	OUT  EEARL,R26
	OUT  EEARH,R27
	SBI  EECR,EERE
	IN   R24,EEDR
	CP   R30,R24
	BREQ __EEPROMWRB0
	OUT  EEDR,R30
	SBI  EECR,EEMWE
	SBI  EECR,EEWE
__EEPROMWRB0:
	OUT  SREG,R25
	RET

__CPD10:
	SBIW R30,0
	SBCI R22,0
	SBCI R23,0
	RET

__CPW02:
	CLR  R0
	CP   R0,R26
	CPC  R0,R27
	RET

__CPD21:
	CP   R26,R30
	CPC  R27,R31
	CPC  R24,R22
	CPC  R25,R23
	RET

__SAVELOCR6:
	ST   -Y,R21
__SAVELOCR5:
	ST   -Y,R20
__SAVELOCR4:
	ST   -Y,R19
__SAVELOCR3:
	ST   -Y,R18
__SAVELOCR2:
	ST   -Y,R17
	ST   -Y,R16
	RET

__LOADLOCR6:
	LDD  R21,Y+5
__LOADLOCR5:
	LDD  R20,Y+4
__LOADLOCR4:
	LDD  R19,Y+3
__LOADLOCR3:
	LDD  R18,Y+2
__LOADLOCR2:
	LDD  R17,Y+1
	LD   R16,Y
	RET

;END OF CODE MARKER
__END_OF_CODE:
